(dp1
S'output'
p2
S"<class 'sqlite3.OperationalError'> Cannot add a PRIMARY KEY column"
p3
sS'layer'
p4
S'E:\\windows_web2py\\web2py_win\\web2py\\applications\\Bidding_Portal\\models\\db.py'
p5
sS'code'
p6
S"# -*- coding: utf-8 -*-\n\n#########################################################################\n## This scaffolding model makes your app work on Google App Engine too\n## File is released under public domain and you can use without limitations\n#########################################################################\n\n## if SSL/HTTPS is properly configured and you want all HTTP requests to\n## be redirected to HTTPS, uncomment the line below:\n# request.requires_https()\n\nif not request.env.web2py_runtime_gae:\n    ## if NOT running on Google App Engine use SQLite or other DB\n    db = DAL('sqlite://storage.sqlite',pool_size=1,check_reserved=['all'])\nelse:\n    ## connect to Google BigTable (optional 'google:datastore://namespace')\n    db = DAL('google:datastore+ndb')\n    ## store sessions and tickets there\n    session.connect(request, response, db=db)\n    ## or store session in Memcache, Redis, etc.\n    ## from gluon.contrib.memdb import MEMDB\n    ## from google.appengine.api.memcache import Client\n    ## session.connect(request, response, db = MEMDB(Client()))\n\n## by default give a view/generic.extension to all actions from localhost\n## none otherwise. a pattern can be 'controller/function.extension'\nresponse.generic_patterns = ['*'] if request.is_local else []\n\n## (optional) optimize handling of static files\n# response.optimize_css = 'concat,minify,inline'\n# response.optimize_js = 'concat,minify,inline'\n## (optional) static assets folder versioning\n# response.static_version = '0.0.0'\n#########################################################################\n## Here is sample code if you need for\n## - email capabilities\n## - authentication (registration, login, logout, ... )\n## - authorization (role based authorization)\n## - services (xml, csv, json, xmlrpc, jsonrpc, amf, rss)\n## - old style crud actions\n## (more options discussed in gluon/tools.py)\n#########################################################################\n\nfrom gluon.tools import Auth, Service, PluginManager\n\nauth = Auth(db)\nservice = Service()\nplugins = PluginManager()\n\n## create all tables needed by auth if not custom tables\nauth.define_tables(username=False, signature=False)\n\n## configure email\nmail = auth.settings.mailer\nmail.settings.server = 'logging' if request.is_local else 'smtp.gmail.com:587'\nmail.settings.sender = 'you@gmail.com'\nmail.settings.login = 'username:password'\n\n## configure auth policy\nauth.settings.registration_requires_verification = False\nauth.settings.registration_requires_approval = False\nauth.settings.reset_password_requires_verification = True\n\n## if you need to use OpenID, Facebook, MySpace, Twitter, Linkedin, etc.\n## register with janrain.com, write your domain:api_key in private/janrain.key\nfrom gluon.contrib.login_methods.janrain_account import use_janrain\nuse_janrain(auth, filename='private/janrain.key')\n\n#########################################################################\n## Define your tables below (or better in another model file) for example\n##\n## >>> db.define_table('mytable',Field('myfield','string'))\n##\n## Fields can be 'string','text','password','integer','double','boolean'\n##       'date','time','datetime','blob','upload', 'reference TABLENAME'\n## There is an implicit 'id integer autoincrement' field\n## Consult manual for more options, validators, etc.\n##\n## More API examples for controllers:\n##\n## >>> db.mytable.insert(myfield='value')\n## >>> rows=db(db.mytable.myfield=='value').select(db.mytable.ALL)\n## >>> for row in rows: print row.id, row.myfield\n#########################################################################\n\n## after defining tables, uncomment below to enable auditing\n# auth.enable_record_versioning(db)\n\n# -*- coding: utf-8 -*-\n\n\ndb.define_table('product_list',\n                Field('product_id',type='id'),\n                Field('product_name',requires=IS_NOT_EMPTY()),\n                Field('description','text',requires=IS_NOT_EMPTY()),\n                #Field('date_of_purchase','date'),\n                Field('starting_price','double',requires=IS_NOT_EMPTY()),\n                #Field('end_date_time','datetime',requires=IS_NOT_EMPTY()),\n                Field('image_no_1', 'upload'),\n                Field('image_no_2', 'upload'),\n                Field('image_no_3', 'upload'),\n                Field('image_no_4', 'upload'),\n                Field('image_no_5', 'upload'),\n                auth.signature\n                )\n"
p7
sS'snapshot'
p8
(dp9
S'exception'
p10
(dp11
S'__module__'
p12
S"'sqlite3'"
p13
sS'__getslice__'
p14
S"<method-wrapper '__getslice__' of OperationalError object>"
p15
sS'__str__'
p16
S"<method-wrapper '__str__' of OperationalError object>"
p17
sS'__reduce__'
p18
S'<built-in method __reduce__ of OperationalError object>'
p19
sS'__dict__'
p20
S'{}'
p21
sS'__sizeof__'
p22
S'<built-in method __sizeof__ of OperationalError object>'
p23
sS'__weakref__'
p24
S'None'
p25
sS'__init__'
p26
S"<method-wrapper '__init__' of OperationalError object>"
p27
sS'__setattr__'
p28
S"<method-wrapper '__setattr__' of OperationalError object>"
p29
sS'__reduce_ex__'
p30
S'<built-in method __reduce_ex__ of OperationalError object>'
p31
sS'__new__'
p32
S'<built-in method __new__ of type object>'
p33
sS'__format__'
p34
S'<built-in method __format__ of OperationalError object>'
p35
sS'__class__'
p36
S"<class 'sqlite3.OperationalError'>"
p37
sS'__doc__'
p38
S'None'
p39
sS'__getitem__'
p40
S"<method-wrapper '__getitem__' of OperationalError object>"
p41
sS'__setstate__'
p42
S'<built-in method __setstate__ of OperationalError object>'
p43
sS'__getattribute__'
p44
S"<method-wrapper '__getattribute__' of OperationalError object>"
p45
sS'args'
p46
S"('Cannot add a PRIMARY KEY column',)"
p47
sS'__subclasshook__'
p48
S'<built-in method __subclasshook__ of type object>'
p49
sS'__unicode__'
p50
S'<built-in method __unicode__ of OperationalError object>'
p51
sS'__delattr__'
p52
S"<method-wrapper '__delattr__' of OperationalError object>"
p53
sS'__repr__'
p54
S"<method-wrapper '__repr__' of OperationalError object>"
p55
sS'__hash__'
p56
S"<method-wrapper '__hash__' of OperationalError object>"
p57
ssS'evalue'
p58
S'Cannot add a PRIMARY KEY column'
p59
sS'request'
p60
cgluon.html
XML_unpickle
p61
(S's\xe0]\x00\x00<div><table><tr><td style="font-weight:bold;vertical-align:top;">ajax</td><td style="vertical-align:top;">:</td><td><div>False</div></td></tr><tr><td style="font-weight:bold;vertical-align:top;">application</td><td style="vertical-align:top;">:</td><td><div>Bidding_Portal</div></td></tr><tr><td style="font-weight:bold;vertical-align:top;">args</td><td style="vertical-align:top;">:</td><td><div><table></table></div></td></tr><tr><td style="font-weight:bold;vertical-align:top;">cid</td><td style="vertical-align:top;">:</td><td><div>None</div></td></tr><tr><td style="font-weight:bold;vertical-align:top;">client</td><td style="vertical-align:top;">:</td><td><div>127.0.0.1</div></td></tr><tr><td style="font-weight:bold;vertical-align:top;">controller</td><td style="vertical-align:top;">:</td><td><div>default</div></td></tr><tr><td style="font-weight:bold;vertical-align:top;">cookies</td><td style="vertical-align:top;">:</td><td><div><table><tr><td style="font-weight:bold;vertical-align:top;">session_id_admin</td><td style="vertical-align:top;">:</td><td><div>127.0.0.1-e7f52709-8c9a-4841-90d3-72215bd8a297<table><tr><td style="font-weight:bold;vertical-align:top;">comment</td><td style="vertical-align:top;">:</td><td><div></div></td></tr><tr><td style="font-weight:bold;vertical-align:top;">domain</td><td style="vertical-align:top;">:</td><td><div></div></td></tr><tr><td style="font-weight:bold;vertical-align:top;">expires</td><td style="vertical-align:top;">:</td><td><div></div></td></tr><tr><td style="font-weight:bold;vertical-align:top;">httponly</td><td style="vertical-align:top;">:</td><td><div></div></td></tr><tr><td style="font-weight:bold;vertical-align:top;">max-age</td><td style="vertical-align:top;">:</td><td><div></div></td></tr><tr><td style="font-weight:bold;vertical-align:top;">path</td><td style="vertical-align:top;">:</td><td><div></div></td></tr><tr><td style="font-weight:bold;vertical-align:top;">secure</td><td style="vertical-align:top;">:</td><td><div></div></td></tr><tr><td style="font-weight:bold;vertical-align:top;">version</td><td style="vertical-align:top;">:</td><td><div></div></td></tr></table></div></td></tr><tr><td style="font-weight:bold;vertical-align:top;">session_id_bidding_portal</td><td style="vertical-align:top;">:</td><td><div>127.0.0.1-2fd197c6-aad6-47d9-ac47-d16df5fc73a2<table><tr><td style="font-weight:bold;vertical-align:top;">comment</td><td style="vertical-align:top;">:</td><td><div></div></td></tr><tr><td style="font-weight:bold;vertical-align:top;">domain</td><td style="vertical-align:top;">:</td><td><div></div></td></tr><tr><td style="font-weight:bold;vertical-align:top;">expires</td><td style="vertical-align:top;">:</td><td><div></div></td></tr><tr><td style="font-weight:bold;vertical-align:top;">httponly</td><td style="vertical-align:top;">:</td><td><div></div></td></tr><tr><td style="font-weight:bold;vertical-align:top;">max-age</td><td style="vertical-align:top;">:</td><td><div></div></td></tr><tr><td style="font-weight:bold;vertical-align:top;">path</td><td style="vertical-align:top;">:</td><td><div></div></td></tr><tr><td style="font-weight:bold;vertical-align:top;">secure</td><td style="vertical-align:top;">:</td><td><div></div></td></tr><tr><td style="font-weight:bold;vertical-align:top;">version</td><td style="vertical-align:top;">:</td><td><div></div></td></tr></table></div></td></tr><tr><td style="font-weight:bold;vertical-align:top;">session_id_welcome</td><td style="vertical-align:top;">:</td><td><div>127.0.0.1-4c3f03ef-a0c7-4708-b1d9-a4adc3e12355<table><tr><td style="font-weight:bold;vertical-align:top;">comment</td><td style="vertical-align:top;">:</td><td><div></div></td></tr><tr><td style="font-weight:bold;vertical-align:top;">domain</td><td style="vertical-align:top;">:</td><td><div></div></td></tr><tr><td style="font-weight:bold;vertical-align:top;">expires</td><td style="vertical-align:top;">:</td><td><div></div></td></tr><tr><td style="font-weight:bold;vertical-align:top;">httponly</td><td style="vertical-align:top;">:</td><td><div></div></td></tr><tr><td style="font-weight:bold;vertical-align:top;">max-age</td><td style="vertical-align:top;">:</td><td><div></div></td></tr><tr><td style="font-weight:bold;vertical-align:top;">path</td><td style="vertical-align:top;">:</td><td><div></div></td></tr><tr><td style="font-weight:bold;vertical-align:top;">secure</td><td style="vertical-align:top;">:</td><td><div></div></td></tr><tr><td style="font-weight:bold;vertical-align:top;">version</td><td style="vertical-align:top;">:</td><td><div></div></td></tr></table></div></td></tr></table></div></td></tr><tr><td style="font-weight:bold;vertical-align:top;">env</td><td style="vertical-align:top;">:</td><td><div><table><tr><td style="font-weight:bold;vertical-align:top;">HTTP_ACCEPT</td><td style="vertical-align:top;">:</td><td><div>text/html,application/xhtml+xml,application/xml;q=0.9,*/*;q=0.8</div></td></tr><tr><td style="font-weight:bold;vertical-align:top;">HTTP_ACCEPT_ENCODING</td><td style="vertical-align:top;">:</td><td><div>gzip, deflate</div></td></tr><tr><td style="font-weight:bold;vertical-align:top;">HTTP_ACCEPT_LANGUAGE</td><td style="vertical-align:top;">:</td><td><div>en-US,en;q=0.5</div></td></tr><tr><td style="font-weight:bold;vertical-align:top;">HTTP_CONNECTION</td><td style="vertical-align:top;">:</td><td><div>keep-alive</div></td></tr><tr><td style="font-weight:bold;vertical-align:top;">HTTP_COOKIE</td><td style="vertical-align:top;">:</td><td><div>session_id_welcome=127.0.0.1-4c3f03ef-a0c7-4708-b1d9-a4adc3e12355; session_id_admin=127.0.0.1-e7f52709-8c9a-4841-90d3-72215bd8a297; session_id_bidding_portal=127.0.0.1-2fd197c6-aad6-47d9-ac47-d16df5fc73a2</div></td></tr><tr><td style="font-weight:bold;vertical-align:top;">HTTP_HOST</td><td style="vertical-align:top;">:</td><td><div>127.0.0.1:8000</div></td></tr><tr><td style="font-weight:bold;vertical-align:top;">HTTP_REFERER</td><td style="vertical-align:top;">:</td><td><div>http://127.0.0.1:8000/Bidding_Portal/default/manage</div></td></tr><tr><td style="font-weight:bold;vertical-align:top;">HTTP_USER_AGENT</td><td style="vertical-align:top;">:</td><td><div>Mozilla/5.0 (Windows NT 6.3; WOW64; rv:36.0) Gecko/20100101 Firefox/36.0</div></td></tr><tr><td style="font-weight:bold;vertical-align:top;">PATH_INFO</td><td style="vertical-align:top;">:</td><td><div>/Bidding_Portal/default/myuploadeditems</div></td></tr><tr><td style="font-weight:bold;vertical-align:top;">QUERY_STRING</td><td style="vertical-align:top;">:</td><td><div></div></td></tr><tr><td style="font-weight:bold;vertical-align:top;">REMOTE_ADDR</td><td style="vertical-align:top;">:</td><td><div>127.0.0.1</div></td></tr><tr><td style="font-weight:bold;vertical-align:top;">REMOTE_PORT</td><td style="vertical-align:top;">:</td><td><div>1912</div></td></tr><tr><td style="font-weight:bold;vertical-align:top;">REQUEST_METHOD</td><td style="vertical-align:top;">:</td><td><div>GET</div></td></tr><tr><td style="font-weight:bold;vertical-align:top;">SCRIPT_NAME</td><td style="vertical-align:top;">:</td><td><div></div></td></tr><tr><td style="font-weight:bold;vertical-align:top;">SERVER_NAME</td><td style="vertical-align:top;">:</td><td><div>akatsuki</div></td></tr><tr><td style="font-weight:bold;vertical-align:top;">SERVER_PORT</td><td style="vertical-align:top;">:</td><td><div>8000</div></td></tr><tr><td style="font-weight:bold;vertical-align:top;">SERVER_PROTOCOL</td><td style="vertical-align:top;">:</td><td><div>HTTP/1.1</div></td></tr><tr><td style="font-weight:bold;vertical-align:top;">SERVER_SOFTWARE</td><td style="vertical-align:top;">:</td><td><div>Rocket 1.2.6</div></td></tr><tr><td style="font-weight:bold;vertical-align:top;">app_folders</td><td style="vertical-align:top;">:</td><td><div>set([&#x27;E:\\\\windows_web2py\\\\web2py_win\\\\web2py\\\\applications\\\\admin\\\\&#x27;, &#x27;E:\\\\windows_web2py\\\\web2py_win\\\\web2py\\\\applications\\\\Bidding_Portal\\\\&#x27;, &#x27;E:\\\\windows_web2py\\\\web2py_win\\\\web2py\\\\applications\\\\welcome\\\\&#x27;])</div></td></tr><tr><td style="font-weight:bold;vertical-align:top;">applications_parent</td><td style="vertical-align:top;">:</td><td><div>E:\\windows_web2py\\web2py_win\\web2py</div></td></tr><tr><td style="font-weight:bold;vertical-align:top;">cmd_args</td><td style="vertical-align:top;">:</td><td><div><table></table></div></td></tr><tr><td style="font-weight:bold;vertical-align:top;">cmd_options</td><td style="vertical-align:top;">:</td><td><div>&lt;Values at 0x293f710: {&#x27;verbose&#x27;: False, &#x27;ip&#x27;: &#x27;127.0.0.1&#x27;, &#x27;debuglevel&#x27;: 30, &#x27;with_scheduler&#x27;: False, &#x27;ips&#x27;: [], &#x27;shutdown_timeout&#x27;: 5, &#x27;taskbar&#x27;: False, &#x27;with_coverage&#x27;: False, &#x27;scheduler_groups&#x27;: None, &#x27;port&#x27;: 8000, &#x27;maxthreads&#x27;: None, &#x27;softcron&#x27;: False, &#x27;server_name&#x27;: &#x27;akatsuki&#x27;, &#x27;bpython&#x27;: False, &#x27;nogui&#x27;: False, &#x27;pid_filename&#x27;: &#x27;httpserver.pid&#x27;, &#x27;print_errors&#x27;: False, &#x27;extcron&#x27;: False, &#x27;runcron&#x27;: False, &#x27;run_system_tests&#x27;: False, &#x27;test&#x27;: None, &#x27;folder&#x27;: &#x27;E:\\\\windows_web2py\\\\web2py_win\\\\web2py&#x27;, &#x27;config&#x27;: &#x27;&#x27;, &#x27;minthreads&#x27;: None, &#x27;shell&#x27;: None, &#x27;run&#x27;: &#x27;&#x27;, &#x27;log_filename&#x27;: &#x27;httpserver.log&#x27;, &#x27;profiler_dir&#x27;: None, &#x27;args&#x27;: [&#x27;&#x27;], &#x27;socket_timeout&#x27;: 5, &#x27;ssl_ca_certificate&#x27;: None, &#x27;scheduler&#x27;: None, &#x27;interfaces&#x27;: None, &#x27;ssl_private_key&#x27;: &#x27;&#x27;, &#x27;gae&#x27;: None, &#x27;password&#x27;: &#x27;&lt;ask&gt;&#x27;, &#x27;request_queue_size&#x27;: 5, &#x27;ssl_certificate&#x27;: &#x27;&#x27;, &#x27;cronjob&#x27;: False, &#x27;numthreads&#x27;: None, &#x27;quiet&#x27;: False, &#x27;import_models&#x27;: False, &#x27;timeout&#x27;: 10, &#x27;plain&#x27;: False, &#x27;nobanner&#x27;: False}&gt;</div></td></tr><tr><td style="font-weight:bold;vertical-align:top;">db_sessions</td><td style="vertical-align:top;">:</td><td><div>set([])</div></td></tr><tr><td style="font-weight:bold;vertical-align:top;">debugging</td><td style="vertical-align:top;">:</td><td><div>True</div></td></tr><tr><td style="font-weight:bold;vertical-align:top;">gluon_parent</td><td style="vertical-align:top;">:</td><td><div>E:\\windows_web2py\\web2py_win\\web2py</div></td></tr><tr><td style="font-weight:bold;vertical-align:top;">http_accept</td><td style="vertical-align:top;">:</td><td><div>text/html,application/xhtml+xml,application/xml;q=0.9,*/*;q=0.8</div></td></tr><tr><td style="font-weight:bold;vertical-align:top;">http_accept_encoding</td><td style="vertical-align:top;">:</td><td><div>gzip, deflate</div></td></tr><tr><td style="font-weight:bold;vertical-align:top;">http_accept_language</td><td style="vertical-align:top;">:</td><td><div>en-US,en;q=0.5</div></td></tr><tr><td style="font-weight:bold;vertical-align:top;">http_connection</td><td style="vertical-align:top;">:</td><td><div>keep-alive</div></td></tr><tr><td style="font-weight:bold;vertical-align:top;">http_cookie</td><td style="vertical-align:top;">:</td><td><div>session_id_welcome=127.0.0.1-4c3f03ef-a0c7-4708-b1d9-a4adc3e12355; session_id_admin=127.0.0.1-e7f52709-8c9a-4841-90d3-72215bd8a297; session_id_bidding_portal=127.0.0.1-2fd197c6-aad6-47d9-ac47-d16df5fc73a2</div></td></tr><tr><td style="font-weight:bold;vertical-align:top;">http_host</td><td style="vertical-align:top;">:</td><td><div>127.0.0.1:8000</div></td></tr><tr><td style="font-weight:bold;vertical-align:top;">http_referer</td><td style="vertical-align:top;">:</td><td><div>http://127.0.0.1:8000/Bidding_Portal/default/manage</div></td></tr><tr><td style="font-weight:bold;vertical-align:top;">http_user_agent</td><td style="vertical-align:top;">:</td><td><div>Mozilla/5.0 (Windows NT 6.3; WOW64; rv:36.0) Gecko/20100101 Firefox/36.0</div></td></tr><tr><td style="font-weight:bold;vertical-align:top;">is_jython</td><td style="vertical-align:top;">:</td><td><div>False</div></td></tr><tr><td style="font-weight:bold;vertical-align:top;">is_pypy</td><td style="vertical-align:top;">:</td><td><div>False</div></td></tr><tr><td style="font-weight:bold;vertical-align:top;">is_source</td><td style="vertical-align:top;">:</td><td><div>False</div></td></tr><tr><td style="font-weight:bold;vertical-align:top;">local_hosts</td><td style="vertical-align:top;">:</td><td><div><table><tr><td><div>fe80::2ce6:2926:f5fc:f721%10</div></td></tr><tr><td><div>akatsuki</div></td></tr><tr><td><div>akatsuki.iiit.ac.in</div></td></tr><tr><td><div>::ffff:127.0.0.1</div></td></tr><tr><td><div>::1</div></td></tr><tr><td><div>2001:0:9d38:6ab8:2ce6:2926:f5fc:f721</div></td></tr><tr><td><div>fe80::ac04:7dcf:a45b:2c1c%4</div></td></tr><tr><td><div>10.3.8.222</div></td></tr><tr><td><div>127.0.0.1</div></td></tr></table></div></td></tr><tr><td style="font-weight:bold;vertical-align:top;">path_info</td><td style="vertical-align:top;">:</td><td><div>/Bidding_Portal/default/myuploadeditems</div></td></tr><tr><td style="font-weight:bold;vertical-align:top;">query_string</td><td style="vertical-align:top;">:</td><td><div></div></td></tr><tr><td style="font-weight:bold;vertical-align:top;">remote_addr</td><td style="vertical-align:top;">:</td><td><div>127.0.0.1</div></td></tr><tr><td style="font-weight:bold;vertical-align:top;">remote_port</td><td style="vertical-align:top;">:</td><td><div>1912</div></td></tr><tr><td style="font-weight:bold;vertical-align:top;">request_method</td><td style="vertical-align:top;">:</td><td><div>GET</div></td></tr><tr><td style="font-weight:bold;vertical-align:top;">request_uri</td><td style="vertical-align:top;">:</td><td><div>/Bidding_Portal/default/myuploadeditems</div></td></tr><tr><td style="font-weight:bold;vertical-align:top;">script_name</td><td style="vertical-align:top;">:</td><td><div></div></td></tr><tr><td style="font-weight:bold;vertical-align:top;">server_name</td><td style="vertical-align:top;">:</td><td><div>akatsuki</div></td></tr><tr><td style="font-weight:bold;vertical-align:top;">server_port</td><td style="vertical-align:top;">:</td><td><div>8000</div></td></tr><tr><td style="font-weight:bold;vertical-align:top;">server_protocol</td><td style="vertical-align:top;">:</td><td><div>HTTP/1.1</div></td></tr><tr><td style="font-weight:bold;vertical-align:top;">server_software</td><td style="vertical-align:top;">:</td><td><div>Rocket 1.2.6</div></td></tr><tr><td style="font-weight:bold;vertical-align:top;">web2py_path</td><td style="vertical-align:top;">:</td><td><div>E:\\windows_web2py\\web2py_win\\web2py</div></td></tr><tr><td style="font-weight:bold;vertical-align:top;">web2py_version</td><td style="vertical-align:top;">:</td><td><div>2.10.3-stable+timestamp.2015.04.02.21.42.07</div></td></tr><tr><td style="font-weight:bold;vertical-align:top;">wsgi.errors</td><td style="vertical-align:top;">:</td><td><div>&lt;open file &#x27;&lt;stderr&gt;&#x27;, mode &#x27;w&#x27; at 0x002ED0D0&gt;</div></td></tr><tr><td style="font-weight:bold;vertical-align:top;">wsgi.file_wrapper</td><td style="vertical-align:top;">:</td><td><div>&lt;class wsgiref.util.FileWrapper at 0x02AEFBC8&gt;</div></td></tr><tr><td style="font-weight:bold;vertical-align:top;">wsgi.input</td><td style="vertical-align:top;">:</td><td><div>&lt;socket._fileobject object at 0x0794AEF0&gt;</div></td></tr><tr><td style="font-weight:bold;vertical-align:top;">wsgi.multiprocess</td><td style="vertical-align:top;">:</td><td><div>False</div></td></tr><tr><td style="font-weight:bold;vertical-align:top;">wsgi.multithread</td><td style="vertical-align:top;">:</td><td><div>True</div></td></tr><tr><td style="font-weight:bold;vertical-align:top;">wsgi.run_once</td><td style="vertical-align:top;">:</td><td><div>False</div></td></tr><tr><td style="font-weight:bold;vertical-align:top;">wsgi.url_scheme</td><td style="vertical-align:top;">:</td><td><div>http</div></td></tr><tr><td style="font-weight:bold;vertical-align:top;">wsgi.version</td><td style="vertical-align:top;">:</td><td><div><table><tr><td><div>1</div></td></tr><tr><td><div>0</div></td></tr></table></div></td></tr><tr><td style="font-weight:bold;vertical-align:top;">wsgi_errors</td><td style="vertical-align:top;">:</td><td><div>&lt;open file &#x27;&lt;stderr&gt;&#x27;, mode &#x27;w&#x27; at 0x002ED0D0&gt;</div></td></tr><tr><td style="font-weight:bold;vertical-align:top;">wsgi_file_wrapper</td><td style="vertical-align:top;">:</td><td><div>&lt;class wsgiref.util.FileWrapper at 0x02AEFBC8&gt;</div></td></tr><tr><td style="font-weight:bold;vertical-align:top;">wsgi_input</td><td style="vertical-align:top;">:</td><td><div>&lt;socket._fileobject object at 0x0794AEF0&gt;</div></td></tr><tr><td style="font-weight:bold;vertical-align:top;">wsgi_multiprocess</td><td style="vertical-align:top;">:</td><td><div>False</div></td></tr><tr><td style="font-weight:bold;vertical-align:top;">wsgi_multithread</td><td style="vertical-align:top;">:</td><td><div>True</div></td></tr><tr><td style="font-weight:bold;vertical-align:top;">wsgi_run_once</td><td style="vertical-align:top;">:</td><td><div>False</div></td></tr><tr><td style="font-weight:bold;vertical-align:top;">wsgi_url_scheme</td><td style="vertical-align:top;">:</td><td><div>http</div></td></tr><tr><td style="font-weight:bold;vertical-align:top;">wsgi_version</td><td style="vertical-align:top;">:</td><td><div><table><tr><td><div>1</div></td></tr><tr><td><div>0</div></td></tr></table></div></td></tr></table></div></td></tr><tr><td style="font-weight:bold;vertical-align:top;">extension</td><td style="vertical-align:top;">:</td><td><div>html</div></td></tr><tr><td style="font-weight:bold;vertical-align:top;">folder</td><td style="vertical-align:top;">:</td><td><div>E:\\windows_web2py\\web2py_win\\web2py\\applications\\Bidding_Portal\\</div></td></tr><tr><td style="font-weight:bold;vertical-align:top;">function</td><td style="vertical-align:top;">:</td><td><div>myuploadeditems</div></td></tr><tr><td style="font-weight:bold;vertical-align:top;">global_settings</td><td style="vertical-align:top;">:</td><td><div><table><tr><td style="font-weight:bold;vertical-align:top;">app_folders</td><td style="vertical-align:top;">:</td><td><div>set([&#x27;E:\\\\windows_web2py\\\\web2py_win\\\\web2py\\\\applications\\\\admin\\\\&#x27;, &#x27;E:\\\\windows_web2py\\\\web2py_win\\\\web2py\\\\applications\\\\Bidding_Portal\\\\&#x27;, &#x27;E:\\\\windows_web2py\\\\web2py_win\\\\web2py\\\\applications\\\\welcome\\\\&#x27;])</div></td></tr><tr><td style="font-weight:bold;vertical-align:top;">applications_parent</td><td style="vertical-align:top;">:</td><td><div>E:\\windows_web2py\\web2py_win\\web2py</div></td></tr><tr><td style="font-weight:bold;vertical-align:top;">cmd_args</td><td style="vertical-align:top;">:</td><td><div><table></table></div></td></tr><tr><td style="font-weight:bold;vertical-align:top;">cmd_options</td><td style="vertical-align:top;">:</td><td><div>&lt;Values at 0x293f710: {&#x27;verbose&#x27;: False, &#x27;ip&#x27;: &#x27;127.0.0.1&#x27;, &#x27;debuglevel&#x27;: 30, &#x27;with_scheduler&#x27;: False, &#x27;ips&#x27;: [], &#x27;shutdown_timeout&#x27;: 5, &#x27;taskbar&#x27;: False, &#x27;with_coverage&#x27;: False, &#x27;scheduler_groups&#x27;: None, &#x27;port&#x27;: 8000, &#x27;maxthreads&#x27;: None, &#x27;softcron&#x27;: False, &#x27;server_name&#x27;: &#x27;akatsuki&#x27;, &#x27;bpython&#x27;: False, &#x27;nogui&#x27;: False, &#x27;pid_filename&#x27;: &#x27;httpserver.pid&#x27;, &#x27;print_errors&#x27;: False, &#x27;extcron&#x27;: False, &#x27;runcron&#x27;: False, &#x27;run_system_tests&#x27;: False, &#x27;test&#x27;: None, &#x27;folder&#x27;: &#x27;E:\\\\windows_web2py\\\\web2py_win\\\\web2py&#x27;, &#x27;config&#x27;: &#x27;&#x27;, &#x27;minthreads&#x27;: None, &#x27;shell&#x27;: None, &#x27;run&#x27;: &#x27;&#x27;, &#x27;log_filename&#x27;: &#x27;httpserver.log&#x27;, &#x27;profiler_dir&#x27;: None, &#x27;args&#x27;: [&#x27;&#x27;], &#x27;socket_timeout&#x27;: 5, &#x27;ssl_ca_certificate&#x27;: None, &#x27;scheduler&#x27;: None, &#x27;interfaces&#x27;: None, &#x27;ssl_private_key&#x27;: &#x27;&#x27;, &#x27;gae&#x27;: None, &#x27;password&#x27;: &#x27;&lt;ask&gt;&#x27;, &#x27;request_queue_size&#x27;: 5, &#x27;ssl_certificate&#x27;: &#x27;&#x27;, &#x27;cronjob&#x27;: False, &#x27;numthreads&#x27;: None, &#x27;quiet&#x27;: False, &#x27;import_models&#x27;: False, &#x27;timeout&#x27;: 10, &#x27;plain&#x27;: False, &#x27;nobanner&#x27;: False}&gt;</div></td></tr><tr><td style="font-weight:bold;vertical-align:top;">db_sessions</td><td style="vertical-align:top;">:</td><td><div>set([])</div></td></tr><tr><td style="font-weight:bold;vertical-align:top;">debugging</td><td style="vertical-align:top;">:</td><td><div>True</div></td></tr><tr><td style="font-weight:bold;vertical-align:top;">gluon_parent</td><td style="vertical-align:top;">:</td><td><div>E:\\windows_web2py\\web2py_win\\web2py</div></td></tr><tr><td style="font-weight:bold;vertical-align:top;">is_jython</td><td style="vertical-align:top;">:</td><td><div>False</div></td></tr><tr><td style="font-weight:bold;vertical-align:top;">is_pypy</td><td style="vertical-align:top;">:</td><td><div>False</div></td></tr><tr><td style="font-weight:bold;vertical-align:top;">is_source</td><td style="vertical-align:top;">:</td><td><div>False</div></td></tr><tr><td style="font-weight:bold;vertical-align:top;">local_hosts</td><td style="vertical-align:top;">:</td><td><div><table><tr><td><div>fe80::2ce6:2926:f5fc:f721%10</div></td></tr><tr><td><div>akatsuki</div></td></tr><tr><td><div>akatsuki.iiit.ac.in</div></td></tr><tr><td><div>::ffff:127.0.0.1</div></td></tr><tr><td><div>::1</div></td></tr><tr><td><div>2001:0:9d38:6ab8:2ce6:2926:f5fc:f721</div></td></tr><tr><td><div>fe80::ac04:7dcf:a45b:2c1c%4</div></td></tr><tr><td><div>10.3.8.222</div></td></tr><tr><td><div>127.0.0.1</div></td></tr></table></div></td></tr><tr><td style="font-weight:bold;vertical-align:top;">web2py_version</td><td style="vertical-align:top;">:</td><td><div>2.10.3-stable+timestamp.2015.04.02.21.42.07</div></td></tr></table></div></td></tr><tr><td style="font-weight:bold;vertical-align:top;">is_https</td><td style="vertical-align:top;">:</td><td><div>False</div></td></tr><tr><td style="font-weight:bold;vertical-align:top;">is_local</td><td style="vertical-align:top;">:</td><td><div>True</div></td></tr><tr><td style="font-weight:bold;vertical-align:top;">is_restful</td><td style="vertical-align:top;">:</td><td><div>False</div></td></tr><tr><td style="font-weight:bold;vertical-align:top;">is_sheduler</td><td style="vertical-align:top;">:</td><td><div>None</div></td></tr><tr><td style="font-weight:bold;vertical-align:top;">is_shell</td><td style="vertical-align:top;">:</td><td><div>None</div></td></tr><tr><td style="font-weight:bold;vertical-align:top;">now</td><td style="vertical-align:top;">:</td><td><div>datetime.datetime(2015, 4, 30, 11, 23, 16, 229000)</div></td></tr><tr><td style="font-weight:bold;vertical-align:top;">raw_args</td><td style="vertical-align:top;">:</td><td><div></div></td></tr><tr><td style="font-weight:bold;vertical-align:top;">raw_extension</td><td style="vertical-align:top;">:</td><td><div>None</div></td></tr><tr><td style="font-weight:bold;vertical-align:top;">url</td><td style="vertical-align:top;">:</td><td><div>/Bidding_Portal/default/myuploadeditems</div></td></tr><tr><td style="font-weight:bold;vertical-align:top;">utcnow</td><td style="vertical-align:top;">:</td><td><div>datetime.datetime(2015, 4, 30, 5, 53, 16, 229000)</div></td></tr><tr><td style="font-weight:bold;vertical-align:top;">uuid</td><td style="vertical-align:top;">:</td><td><div>Bidding_Portal/127.0.0.1.2015-04-30.11-23-16.75199942-5ecd-4210-857a-40705be806ad</div></td></tr><tr><td style="font-weight:bold;vertical-align:top;">wsgi</td><td style="vertical-align:top;">:</td><td><div>&lt;gluon.main.LazyWSGI object at 0x076A8ED0&gt;</div></td></tr></table></div>'
tRp62
sS'frames'
p63
(lp64
(dp65
S'file'
p66
S'E:\\windows_web2py\\web2py_win\\web2py\\gluon\\restricted.py'
p67
sS'dump'
p68
(dp69
S'environment'
p70
S"{'A': <class 'gluon.html.A'>, 'ANY_OF': <class 'gluon.validators.ANY_OF'>, 'ASSIGNJS': <function ASSIGNJS>, 'Auth': <class 'gluon.tools.Auth'>, 'B': <class 'gluon.html.B'>, 'BEAUTIFY': <class 'gluon.html.BEAUTIFY'>, 'BODY': <class 'gluon.html.BODY'>, 'BR': <class 'gluon.html.BR'>, 'BUTTON': <class 'gluon.html.BUTTON'>, 'CAT': <class 'gluon.html.CAT'>, ...}"
p71
sS'ccode'
p72
S'<code object <module> at 07AA4F08, file "E:\\wind...plications\\Bidding_Portal\\models\\db.py", line 12>'
p73
ssS'lnum'
p74
I227
sS'lines'
p75
(dp76
I224
S'            ccode = code'
p77
sI225
S'        else:'
p78
sI226
S'            ccode = compile2(code, layer)'
p79
sI227
S'        exec ccode in environment'
p80
sI228
S'    except HTTP:'
p81
sI229
S'        raise'
p82
sI230
S'    except RestrictedError:'
p83
sI231
S'        # do not encapsulate (obfuscate) the original RestrictedError'
p84
sI222
S'    try:'
p85
sI223
S'        if isinstance(code, types.CodeType):'
p86
ssS'call'
p87
S"(code='# -*- coding: utf-8 -*-\\n\\n#######################...                auth.signature\\n                )\\n', environment={'A': <class 'gluon.html.A'>, 'ANY_OF': <class 'gluon.validators.ANY_OF'>, 'ASSIGNJS': <function ASSIGNJS>, 'Auth': <class 'gluon.tools.Auth'>, 'B': <class 'gluon.html.B'>, 'BEAUTIFY': <class 'gluon.html.BEAUTIFY'>, 'BODY': <class 'gluon.html.BODY'>, 'BR': <class 'gluon.html.BR'>, 'BUTTON': <class 'gluon.html.BUTTON'>, 'CAT': <class 'gluon.html.CAT'>, ...}, layer=r'E:\\windows_web2py\\web2py_win\\web2py\\applications\\Bidding_Portal\\models\\db.py')"
p88
sS'func'
p89
S'restricted'
p90
sa(dp91
g66
S'E:\\windows_web2py\\web2py_win\\web2py\\applications\\Bidding_Portal\\models\\db.py'
p92
sg68
(dp93
S'auth.signature'
p94
S'<Table auth_signature (id,is_active,created_on,created_by,modified_on,modified_by)>'
p95
sS'auth'
p96
S'<gluon.tools.Auth object>'
p97
ssg74
I104
sg75
(dp98
I96
S"                #Field('date_of_purchase','date'),"
p99
sI97
S"                Field('starting_price','double',requires=IS_NOT_EMPTY()),"
p100
sI98
S"                #Field('end_date_time','datetime',requires=IS_NOT_EMPTY()),"
p101
sI99
S"                Field('image_no_1', 'upload'),"
p102
sI100
S"                Field('image_no_2', 'upload'),"
p103
sI101
S"                Field('image_no_3', 'upload'),"
p104
sI102
S"                Field('image_no_4', 'upload'),"
p105
sI103
S"                Field('image_no_5', 'upload'),"
p106
sI104
S'                auth.signature'
p107
sI105
S'                )'
p108
ssg87
S'()'
p109
sg89
S'<module>'
p110
sa(dp111
g66
S'E:\\windows_web2py\\web2py_win\\web2py\\gluon\\packages\\dal\\pydal\\base.py'
p112
sg68
(dp113
S'fields'
p114
S'(<pydal.objects.Field object>, <pydal.objects.Field object>, <pydal.objects.Field object>, <pydal.objects.Field object>, <pydal.objects.Field object>, <pydal.objects.Field object>, <pydal.objects.Field object>, <pydal.objects.Field object>, <pydal.objects.Field object>, <Table auth_signature (id,is_active,created_on,created_by,modified_on,modified_by)>)'
p115
sS'self'
p116
S'<DAL uri="sqlite://storage.sqlite">'
p117
sS'args'
p118
g21
sS'tablename'
p119
S"'product_list'"
p120
sS'table'
p121
S'undefined'
p122
sS'self.lazy_define_table'
p123
S'<bound method DAL.lazy_define_table of <DAL uri="sqlite://storage.sqlite">>'
p124
ssg74
I814
sg75
(dp125
I809
S'                    % (tablename,invalid_args))'
p126
sI810
S'        if self._lazy_tables and tablename not in self._LAZY_TABLES:'
p127
sI811
S'            self._LAZY_TABLES[tablename] = (tablename,fields,args)'
p128
sI812
S'            table = None'
p129
sI813
S'        else:'
p130
sI814
S'            table = self.lazy_define_table(tablename,*fields,**args)'
p131
sI815
S'        if not tablename in self.tables:'
p132
sI816
S'            self.tables.append(tablename)'
p133
sI817
S'        return table'
p134
sI818
S''
ssg87
S'(self=<DAL uri="sqlite://storage.sqlite">, tablename=\'product_list\', *fields=(<pydal.objects.Field object>, <pydal.objects.Field object>, <pydal.objects.Field object>, <pydal.objects.Field object>, <pydal.objects.Field object>, <pydal.objects.Field object>, <pydal.objects.Field object>, <pydal.objects.Field object>, <pydal.objects.Field object>, <Table auth_signature (id,is_active,created_on,created_by,modified_on,modified_by)>), **args={})'
p135
sg89
S'define_table'
p136
sa(dp137
g66
S'E:\\windows_web2py\\web2py_win\\web2py\\gluon\\packages\\dal\\pydal\\base.py'
p138
sg68
(dp139
S'polymodel'
p140
S'None'
p141
ssg74
I853
sg75
(dp142
I848
S'            try:'
p143
sI849
S'                GLOBAL_LOCKER.acquire()'
p144
sI850
S'                self._lastsql = self._adapter.create_table('
p145
sI851
S'                    table,migrate=migrate,'
p146
sI852
S'                    fake_migrate=fake_migrate,'
p147
sI853
S'                    polymodel=polymodel)'
p148
sI854
S'            finally:'
p149
sI855
S'                GLOBAL_LOCKER.release()'
p150
sI856
S'        else:'
p151
sI857
S'            table._dbt = None'
p152
ssg87
S'(self=<DAL uri="sqlite://storage.sqlite">, tablename=\'product_list\', *fields=(<pydal.objects.Field object>, <pydal.objects.Field object>, <pydal.objects.Field object>, <pydal.objects.Field object>, <pydal.objects.Field object>, <pydal.objects.Field object>, <pydal.objects.Field object>, <pydal.objects.Field object>, <pydal.objects.Field object>, <Table auth_signature (id,is_active,created_on,created_by,modified_on,modified_by)>), **args={})'
p153
sg89
S'lazy_define_table'
p154
sa(dp155
g66
S'E:\\windows_web2py\\web2py_win\\web2py\\gluon\\packages\\dal\\pydal\\adapters\\base.py'
p156
sg68
(dp157
S'fake_migrate'
p158
S'False'
p159
ssg74
I491
sg75
(dp160
I486
S'            if sql_fields != sql_fields_old:'
p161
sI487
S'                self.migrate_table('
p162
sI488
S'                    table,'
p163
sI489
S'                    sql_fields, sql_fields_old,'
p164
sI490
S'                    sql_fields_aux, None,'
p165
sI491
S'                    fake_migrate=fake_migrate'
p166
sI492
S'                    )'
p167
sI493
S'        return query'
p168
sI494
S''
sI495
S'    def migrate_table('
p169
ssg87
S'(self=<pydal.adapters.sqlite.SQLiteAdapter object>, table=<Table product_list (product_id,product_name,des...e,created_on,created_by,modified_on,modified_by)>, migrate=True, fake_migrate=False, polymodel=None)'
p170
sg89
S'create_table'
p171
sa(dp172
g66
S'E:\\windows_web2py\\web2py_win\\web2py\\gluon\\packages\\dal\\pydal\\adapters\\base.py'
p173
sg68
(dp174
S'self'
p175
S'<pydal.adapters.sqlite.SQLiteAdapter object>'
p176
sS'self.execute'
p177
S'<bound method SQLiteAdapter.execute of <pydal.adapters.sqlite.SQLiteAdapter object>>'
p178
sS'sub_query'
p179
S"'ALTER TABLE product_list ADD product_id INTEGER PRIMARY KEY AUTOINCREMENT;'"
p180
ssg74
I604
sg75
(dp181
I608
S'                        # partial transactions and'
p182
sI599
S'                    if fake_migrate:'
p183
sI600
S'                        if db._adapter.commit_on_alter_table:'
p184
sI601
S'                            self.save_dbt(table,sql_fields_current)'
p185
sI602
S"                        self.log('faked!\\n', table)"
p186
sI603
S'                    else:'
p187
sI604
S'                        self.execute(sub_query)'
p188
sI605
S'                        # Caveat: mysql, oracle and firebird'
p189
sI606
S'                        # do not allow multiple alter table'
p190
sI607
S'                        # in one transaction so we must commit'
p191
ssg87
S"(self=<pydal.adapters.sqlite.SQLiteAdapter object>, table=<Table product_list (product_id,product_name,des...e,created_on,created_by,modified_on,modified_by)>, sql_fields={'created_by': {'length': 512, 'notnull': False, 'sortable': 12, 'sql': 'INTEGER REFERENCES auth_user (id) ON DELETE CASCADE', 'type': 'reference auth_user', 'unique': False}, 'created_on': {'length': 512, 'notnull': False, 'sortable': 11, 'sql': 'TIMESTAMP', 'type': 'datetime', 'unique': False}, 'description': {'length': 32768, 'notnull': False, 'sortable': 3, 'sql': 'TEXT', 'type': 'text', 'unique': False}, 'image_no_1': {'length': 512, 'notnull': False, 'sortable': 5, 'sql': 'CHAR(512)', 'type': 'upload', 'unique': False}, 'image_no_2': {'length': 512, 'notnull': False, 'sortable': 6, 'sql': 'CHAR(512)', 'type': 'upload', 'unique': False}, 'image_no_3': {'length': 512, 'notnull': False, 'sortable': 7, 'sql': 'CHAR(512)', 'type': 'upload', 'unique': False}, 'image_no_4': {'length': 512, 'notnull': False, 'sortable': 8, 'sql': 'CHAR(512)', 'type': 'upload', 'unique': False}, 'image_no_5': {'length': 512, 'notnull': False, 'sortable': 9, 'sql': 'CHAR(512)', 'type': 'upload', 'unique': False}, 'is_active': {'length': 512, 'notnull': False, 'sortable': 10, 'sql': 'CHAR(1)', 'type': 'boolean', 'unique': False}, 'modified_by': {'length': 512, 'notnull': False, 'sortable': 14, 'sql': 'INTEGER REFERENCES auth_user (id) ON DELETE CASCADE', 'type': 'reference auth_user', 'unique': False}, ...}, sql_fields_old={'created_by': {'length': 512, 'notnull': False, 'sortable': 12, 'sql': 'INTEGER REFERENCES auth_user (id) ON DELETE CASCADE', 'type': 'reference auth_user', 'unique': False}, 'created_on': {'length': 512, 'notnull': False, 'sortable': 11, 'sql': 'TIMESTAMP', 'type': 'datetime', 'unique': False}, 'date_of_purchase': {'length': 512, 'notnull': False, 'sortable': 4, 'sql': 'DATE', 'type': 'date', 'unique': False}, 'description': {'length': 32768, 'notnull': False, 'sortable': 3, 'sql': 'TEXT', 'type': 'text', 'unique': False}, 'end_date_time': {'length': 512, 'notnull': False, 'sortable': 6, 'sql': 'TIMESTAMP', 'type': 'datetime', 'unique': False}, 'id': {'length': 512, 'notnull': False, 'sortable': 1, 'sql': 'INTEGER PRIMARY KEY AUTOINCREMENT', 'type': 'id', 'unique': False}, 'image1': {'length': 512, 'notnull': False, 'sortable': 7, 'sql': 'CHAR(512)', 'type': 'upload', 'unique': False}, 'image_no_1': {'length': 512, 'notnull': False, 'sortable': 5, 'sql': 'CHAR(512)', 'type': 'upload', 'unique': False}, 'image_no_2': {'length': 512, 'notnull': False, 'sortable': 6, 'sql': 'CHAR(512)', 'type': 'upload', 'unique': False}, 'image_no_3': {'length': 512, 'notnull': False, 'sortable': 7, 'sql': 'CHAR(512)', 'type': 'upload', 'unique': False}, ...}, sql_fields_aux={'created_by': {'sql': 'INTEGER REFERENCES auth_user (id) ON DELETE CASCADE'}, 'created_on': {'sql': 'TIMESTAMP'}, 'description': {'sql': 'TEXT'}, 'image_no_1': {'sql': 'CHAR(512)'}, 'image_no_2': {'sql': 'CHAR(512)'}, 'image_no_3': {'sql': 'CHAR(512)'}, 'image_no_4': {'sql': 'CHAR(512)'}, 'image_no_5': {'sql': 'CHAR(512)'}, 'is_active': {'sql': 'CHAR(1)'}, 'modified_by': {'sql': 'INTEGER REFERENCES auth_user (id) ON DELETE CASCADE'}, ...}, logfile=None, fake_migrate=False)"
p192
sg89
S'migrate_table'
p193
sa(dp194
g66
S'E:\\windows_web2py\\web2py_win\\web2py\\gluon\\packages\\dal\\pydal\\adapters\\base.py'
p195
sg68
(dp196
S'a'
S"('ALTER TABLE product_list ADD product_id INTEGER PRIMARY KEY AUTOINCREMENT;',)"
p197
sS'self'
p198
S'<pydal.adapters.sqlite.SQLiteAdapter object>'
p199
sS'b'
g21
sS'self.log_execute'
p200
S'<bound method SQLiteAdapter.log_execute of <pydal.adapters.sqlite.SQLiteAdapter object>>'
p201
ssg74
I1326
sg75
(dp202
I1321
S'        self.db._timings.append((command,time.time()-t0))'
p203
sI1322
S'        del self.db._timings[:-TIMINGSSIZE]'
p204
sI1323
S'        return ret'
p205
sI1324
S''
sI1325
S'    def execute(self, *a, **b):'
p206
sI1326
S'        return self.log_execute(*a, **b)'
p207
sI1327
S''
sI1328
S'    def represent(self, obj, fieldtype):'
p208
sI1329
S'        field_is_type = fieldtype.startswith'
p209
sI1330
S'        if isinstance(obj, CALLABLETYPES):'
p210
ssg87
S"(self=<pydal.adapters.sqlite.SQLiteAdapter object>, *a=('ALTER TABLE product_list ADD product_id INTEGER PRIMARY KEY AUTOINCREMENT;',), **b={})"
p211
sg89
S'execute'
p212
sa(dp213
g66
S'E:\\windows_web2py\\web2py_win\\web2py\\gluon\\packages\\dal\\pydal\\adapters\\base.py'
p214
sg68
(dp215
S'a'
S"('ALTER TABLE product_list ADD product_id INTEGER PRIMARY KEY AUTOINCREMENT;',)"
p216
sS'b'
g21
sS'self'
p217
S'<pydal.adapters.sqlite.SQLiteAdapter object>'
p218
sS'ret'
p219
g122
sS'self.cursor'
p220
S'<sqlite3.Cursor object>'
p221
sS'command'
p222
S"'ALTER TABLE product_list ADD product_id INTEGER PRIMARY KEY AUTOINCREMENT;'"
p223
sS'self.cursor.execute'
p224
S'<built-in method execute of sqlite3.Cursor object>'
p225
ssg74
I1320
sg75
(dp226
I1315
S'            command = self.filter_sql_command(command)'
p227
sI1316
S'        if self.db._debug:'
p228
sI1317
S"            self.db.logger.debug('SQL: %s' % command)"
p229
sI1318
S'        self.db._lastsql = command'
p230
sI1319
S'        t0 = time.time()'
p231
sI1320
S'        ret = self.cursor.execute(command, *a[1:], **b)'
p232
sI1321
S'        self.db._timings.append((command,time.time()-t0))'
p233
sI1322
S'        del self.db._timings[:-TIMINGSSIZE]'
p234
sI1323
S'        return ret'
p235
sI1324
S''
ssg87
S"(self=<pydal.adapters.sqlite.SQLiteAdapter object>, *a=('ALTER TABLE product_list ADD product_id INTEGER PRIMARY KEY AUTOINCREMENT;',), **b={})"
p236
sg89
S'log_execute'
p237
sasS'pyver'
p238
S'Python 2.7.9: E:\\windows_web2py\\web2py_win\\web2py\\web2py.exe (prefix: )'
p239
sS'session'
p240
g61
(S's\xe0\x08\x00\x00<div><table><tr><td style="font-weight:bold;vertical-align:top;">auth</td><td style="vertical-align:top;">:</td><td><div><table><tr><td style="font-weight:bold;vertical-align:top;">expiration</td><td style="vertical-align:top;">:</td><td><div>3600</div></td></tr><tr><td style="font-weight:bold;vertical-align:top;">hmac_key</td><td style="vertical-align:top;">:</td><td><div>7f94e452-b2b5-4af8-ae19-2f358b302097</div></td></tr><tr><td style="font-weight:bold;vertical-align:top;">last_visit</td><td style="vertical-align:top;">:</td><td><div>datetime.datetime(2015, 4, 30, 11, 20, 39, 676000)</div></td></tr><tr><td style="font-weight:bold;vertical-align:top;">remember_me</td><td style="vertical-align:top;">:</td><td><div>False</div></td></tr><tr><td style="font-weight:bold;vertical-align:top;">user</td><td style="vertical-align:top;">:</td><td><div><table><tr><td style="font-weight:bold;vertical-align:top;">email</td><td style="vertical-align:top;">:</td><td><div>xyz@gmail.com</div></td></tr><tr><td style="font-weight:bold;vertical-align:top;">first_name</td><td style="vertical-align:top;">:</td><td><div>xyz</div></td></tr><tr><td style="font-weight:bold;vertical-align:top;">id</td><td style="vertical-align:top;">:</td><td><div>1L</div></td></tr><tr><td style="font-weight:bold;vertical-align:top;">last_name</td><td style="vertical-align:top;">:</td><td><div>xyz</div></td></tr><tr><td style="font-weight:bold;vertical-align:top;">registration_id</td><td style="vertical-align:top;">:</td><td><div></div></td></tr><tr><td style="font-weight:bold;vertical-align:top;">registration_key</td><td style="vertical-align:top;">:</td><td><div></div></td></tr><tr><td style="font-weight:bold;vertical-align:top;">reset_password_key</td><td style="vertical-align:top;">:</td><td><div></div></td></tr></table></div></td></tr><tr><td style="font-weight:bold;vertical-align:top;">user_groups</td><td style="vertical-align:top;">:</td><td><div><table><tr><td style="font-weight:bold;vertical-align:top;">1</td><td style="vertical-align:top;">:</td><td><div>user_1</div></td></tr></table></div></td></tr></table></div></td></tr><tr><td style="font-weight:bold;vertical-align:top;">flash</td><td style="vertical-align:top;">:</td><td><div>None</div></td></tr></table></div>'
tRp241
sS'etype'
p242
S"<class 'sqlite3.OperationalError'>"
p243
sS'date'
p244
S'Thu Apr 30 11:23:16 2015'
p245
sS'response'
p246
g61
(S'sM\x18\x00\x00<div><table><tr><td style="font-weight:bold;vertical-align:top;">body</td><td style="vertical-align:top;">:</td><td><div>&lt;cStringIO.StringO object at 0x076A8640&gt;</div></td></tr><tr><td style="font-weight:bold;vertical-align:top;">cookies</td><td style="vertical-align:top;">:</td><td><div><table><tr><td style="font-weight:bold;vertical-align:top;">session_id_bidding_portal</td><td style="vertical-align:top;">:</td><td><div>127.0.0.1-2fd197c6-aad6-47d9-ac47-d16df5fc73a2<table><tr><td style="font-weight:bold;vertical-align:top;">comment</td><td style="vertical-align:top;">:</td><td><div></div></td></tr><tr><td style="font-weight:bold;vertical-align:top;">domain</td><td style="vertical-align:top;">:</td><td><div></div></td></tr><tr><td style="font-weight:bold;vertical-align:top;">expires</td><td style="vertical-align:top;">:</td><td><div></div></td></tr><tr><td style="font-weight:bold;vertical-align:top;">httponly</td><td style="vertical-align:top;">:</td><td><div></div></td></tr><tr><td style="font-weight:bold;vertical-align:top;">max-age</td><td style="vertical-align:top;">:</td><td><div></div></td></tr><tr><td style="font-weight:bold;vertical-align:top;">path</td><td style="vertical-align:top;">:</td><td><div>/</div></td></tr><tr><td style="font-weight:bold;vertical-align:top;">secure</td><td style="vertical-align:top;">:</td><td><div></div></td></tr><tr><td style="font-weight:bold;vertical-align:top;">version</td><td style="vertical-align:top;">:</td><td><div></div></td></tr></table></div></td></tr></table></div></td></tr><tr><td style="font-weight:bold;vertical-align:top;">delimiters</td><td style="vertical-align:top;">:</td><td><div><table><tr><td><div>{{</div></td></tr><tr><td><div>}}</div></td></tr></table></div></td></tr><tr><td style="font-weight:bold;vertical-align:top;">files</td><td style="vertical-align:top;">:</td><td><div><table></table></div></td></tr><tr><td style="font-weight:bold;vertical-align:top;">flash</td><td style="vertical-align:top;">:</td><td><div></div></td></tr><tr><td style="font-weight:bold;vertical-align:top;">form_label_separator</td><td style="vertical-align:top;">:</td><td><div>: </div></td></tr><tr><td style="font-weight:bold;vertical-align:top;">formstyle</td><td style="vertical-align:top;">:</td><td><div>table3cols</div></td></tr><tr><td style="font-weight:bold;vertical-align:top;">generic_patterns</td><td style="vertical-align:top;">:</td><td><div><table><tr><td><div>*</div></td></tr></table></div></td></tr><tr><td style="font-weight:bold;vertical-align:top;">headers</td><td style="vertical-align:top;">:</td><td><div><table><tr><td style="font-weight:bold;vertical-align:top;">X-Powered-By</td><td style="vertical-align:top;">:</td><td><div>web2py</div></td></tr></table></div></td></tr><tr><td style="font-weight:bold;vertical-align:top;">menu</td><td style="vertical-align:top;">:</td><td><div><table></table></div></td></tr><tr><td style="font-weight:bold;vertical-align:top;">meta</td><td style="vertical-align:top;">:</td><td><div><table></table></div></td></tr><tr><td style="font-weight:bold;vertical-align:top;">models_to_run</td><td style="vertical-align:top;">:</td><td><div><table><tr><td><div>^\\w+\\.py$</div></td></tr><tr><td><div>^default/\\w+\\.py$</div></td></tr><tr><td><div>^default/myuploadeditems/\\w+\\.py$</div></td></tr></table></div></td></tr><tr><td style="font-weight:bold;vertical-align:top;">postprocessing</td><td style="vertical-align:top;">:</td><td><div><table></table></div></td></tr><tr><td style="font-weight:bold;vertical-align:top;">session_client</td><td style="vertical-align:top;">:</td><td><div>127.0.0.1</div></td></tr><tr><td style="font-weight:bold;vertical-align:top;">session_cookie_compression_level</td><td style="vertical-align:top;">:</td><td><div>None</div></td></tr><tr><td style="font-weight:bold;vertical-align:top;">session_cookie_expires</td><td style="vertical-align:top;">:</td><td><div>None</div></td></tr><tr><td style="font-weight:bold;vertical-align:top;">session_cookie_key</td><td style="vertical-align:top;">:</td><td><div>None</div></td></tr><tr><td style="font-weight:bold;vertical-align:top;">session_data_name</td><td style="vertical-align:top;">:</td><td><div>session_data_bidding_portal</div></td></tr><tr><td style="font-weight:bold;vertical-align:top;">session_file</td><td style="vertical-align:top;">:</td><td><div>&lt;open file &#x27;E:\\\\windows_web2py\\\\web2py_win\\\\web2py\\\\applications\\\\Bidding_Portal\\\\sessions\\\\00c\\\\14f\\\\127.0.0.1-2fd197c6-aad6-47d9-ac47-d16df5fc73a2&#x27;, mode &#x27;rb+&#x27; at 0x07E9C390&gt;</div></td></tr><tr><td style="font-weight:bold;vertical-align:top;">session_filename</td><td style="vertical-align:top;">:</td><td><div>E:\\windows_web2py\\web2py_win\\web2py\\applications\\Bidding_Portal\\sessions\\127.0.0.1-2fd197c6-aad6-47d9-ac47-d16df5fc73a2</div></td></tr><tr><td style="font-weight:bold;vertical-align:top;">session_hash</td><td style="vertical-align:top;">:</td><td><div>c4c0171fca72333d706c129f286df3c6</div></td></tr><tr><td style="font-weight:bold;vertical-align:top;">session_id</td><td style="vertical-align:top;">:</td><td><div>127.0.0.1-2fd197c6-aad6-47d9-ac47-d16df5fc73a2</div></td></tr><tr><td style="font-weight:bold;vertical-align:top;">session_id_name</td><td style="vertical-align:top;">:</td><td><div>session_id_bidding_portal</div></td></tr><tr><td style="font-weight:bold;vertical-align:top;">session_locked</td><td style="vertical-align:top;">:</td><td><div>True</div></td></tr><tr><td style="font-weight:bold;vertical-align:top;">session_masterapp</td><td style="vertical-align:top;">:</td><td><div>Bidding_Portal</div></td></tr><tr><td style="font-weight:bold;vertical-align:top;">session_new</td><td style="vertical-align:top;">:</td><td><div>False</div></td></tr><tr><td style="font-weight:bold;vertical-align:top;">session_storage_type</td><td style="vertical-align:top;">:</td><td><div>file</div></td></tr><tr><td style="font-weight:bold;vertical-align:top;">status</td><td style="vertical-align:top;">:</td><td><div>200</div></td></tr><tr><td style="font-weight:bold;vertical-align:top;">view</td><td style="vertical-align:top;">:</td><td><div>default/myuploadeditems.html</div></td></tr></table></div>'
tRp247
sS'locals'
p248
(dp249
S'a'
S"('ALTER TABLE product_list ADD product_id INTEGER PRIMARY KEY AUTOINCREMENT;',)"
p250
sS'self'
p251
S'<pydal.adapters.sqlite.SQLiteAdapter object>'
p252
sS'b'
g21
sS'command'
p253
S"'ALTER TABLE product_list ADD product_id INTEGER PRIMARY KEY AUTOINCREMENT;'"
p254
sS't0'
p255
S'1430373196.272'
p256
sssS'traceback'
p257
S'Traceback (most recent call last):\n  File "E:\\windows_web2py\\web2py_win\\web2py\\gluon\\restricted.py", line 227, in restricted\n    exec ccode in environment\n  File "E:\\windows_web2py\\web2py_win\\web2py\\applications\\Bidding_Portal\\models\\db.py", line 104, in <module>\n    auth.signature\n  File "E:\\windows_web2py\\web2py_win\\web2py\\gluon\\packages\\dal\\pydal\\base.py", line 814, in define_table\n    table = self.lazy_define_table(tablename,*fields,**args)\n  File "E:\\windows_web2py\\web2py_win\\web2py\\gluon\\packages\\dal\\pydal\\base.py", line 853, in lazy_define_table\n    polymodel=polymodel)\n  File "E:\\windows_web2py\\web2py_win\\web2py\\gluon\\packages\\dal\\pydal\\adapters\\base.py", line 491, in create_table\n    fake_migrate=fake_migrate\n  File "E:\\windows_web2py\\web2py_win\\web2py\\gluon\\packages\\dal\\pydal\\adapters\\base.py", line 604, in migrate_table\n    self.execute(sub_query)\n  File "E:\\windows_web2py\\web2py_win\\web2py\\gluon\\packages\\dal\\pydal\\adapters\\base.py", line 1326, in execute\n    return self.log_execute(*a, **b)\n  File "E:\\windows_web2py\\web2py_win\\web2py\\gluon\\packages\\dal\\pydal\\adapters\\base.py", line 1320, in log_execute\n    ret = self.cursor.execute(command, *a[1:], **b)\nOperationalError: Cannot add a PRIMARY KEY column\n'
p258
s.