(dp1
S'output'
p2
S"<type 'exceptions.NameError'> name 'prod_id' is not defined"
p3
sS'layer'
p4
S'E:\\windows_web2py\\web2py_win\\web2py\\applications\\Bidding_Portal\\views\\default/productpage.html'
p5
sS'code'
p6
S'response.write(\'<!DOCTYPE html>\\r\\n<html lang="en" class="no-js">\\r\\n\\t<head>\\r\\n\\t\\t<meta charset="UTF-8" />\\r\\n\\t\\t<meta http-equiv="X-UA-Compatible" content="IE=edge,chrome=1"> \\r\\n\\t\\t<meta name="viewport" content="width=device-width, initial-scale=1.0"> \\r\\n\\t\\t<title>Template</title>\\r\\n\\t\\t<link rel="shortcut icon" href="../favicon.ico">\\r\\n\\t\\t<link rel="stylesheet" href="\', escape=False)\nresponse.write(URL(\'static\',\'css/categoriesmenu/normalize.css\'))\nresponse.write(\'" />\\r\\n\\t\\t<link rel="stylesheet" href="\', escape=False)\nresponse.write(URL(\'static\',\'css/categoriesmenu/demo.css\'))\nresponse.write(\'" />\\r\\n\\t\\t<link rel="stylesheet" href="\', escape=False)\nresponse.write(URL(\'static\',\'css/categoriesmenu/icons.css\'))\nresponse.write(\'" />\\r\\n\\t\\t<link rel="stylesheet" href="\', escape=False)\nresponse.write(URL(\'static\',\'css/categoriesmenu/component.css\'))\nresponse.write(\'" />\\r\\n\\t\\t<script src="\', escape=False)\nresponse.write(URL(\'static\',\'js/categoriesmenu/modernizr.custom.js\'))\nresponse.write(\'"></script>\\r\\n        \\r\\n        \\r\\n        \\r\\n        \\r\\n        \\r\\n        \\r\\n        \\r\\n        \\r\\n        \\r\\n        \\r\\n        \\r\\n        \\r\\n        \\r\\n        \\r\\n        \\r\\n        \\r\\n        <link rel="stylesheet" href="\', escape=False)\nresponse.write(URL(\'static\',\'css/circular/normalize.css\'))\nresponse.write(\'"/>\\r\\n        <link rel="stylesheet" href="\', escape=False)\nresponse.write(URL(\'static\',\'css/circular/demo.css\'))\nresponse.write(\'"/>\\r\\n        <link rel="stylesheet" href="\', escape=False)\nresponse.write(URL(\'static\',\'css/circular/component2.css\'))\nresponse.write(\'"/>\\r\\n\\t\\t<script src="\', escape=False)\nresponse.write(URL(\'static\',\'js/circular/modernizr-2.6.2.min.js\'))\nresponse.write(\'"></script>\\r\\n        \\r\\n        \\r\\n        \\r\\n        \\r\\n        \\r\\n        \\r\\n        \\r\\n        \\r\\n        \\r\\n  \', escape=False)\nresponse.write(\'<script type="text/javascript"><!--\\n    // These variables are used by the web2py_ajax_init function in web2py_ajax.js (which is loaded below).\\n    var w2p_ajax_confirm_message = "\', escape=False)\nresponse.write(T(\'Are you sure you want to delete this object?\'))\nresponse.write(\'";\\n    var w2p_ajax_disable_with_message = "\', escape=False)\nresponse.write(T(\'Working...\'))\nresponse.write(\'";\\n    var w2p_ajax_date_format = "\', escape=False)\nresponse.write(T(\'%Y-%m-%d\'))\nresponse.write(\'";\\n    var w2p_ajax_datetime_format = "\', escape=False)\nresponse.write(T(\'%Y-%m-%d %H:%M:%S\'))\nresponse.write(\'";\\n    var ajax_error_500 = \\\'\', escape=False)\nresponse.write(T.M(\'An error occured, please [[reload %s]] the page\') % URL(args=request.args, vars=request.get_vars))\nresponse.write("\'\\n    //--></script>\\n", escape=False)\nresponse.files.insert(0,URL(\'static\',\'js/jquery.js\'))\nresponse.files.insert(1,URL(\'static\',\'css/calendar.css\'))\nresponse.files.insert(2,URL(\'static\',\'js/calendar.js\'))\nresponse.files.insert(3,URL(\'static\',\'js/web2py.js\'))\nresponse.include_meta()\nresponse.include_files()\nresponse.write(\'\\n\', escape=False)\nresponse.write(\'\\r\\n\\r\\n\\r\\n\\r\\n\\r\\n        \\r\\n        \\r\\n        \\r\\n        \\r\\n        \\r\\n        \\r\\n       \\r\\n        \\r\\n        \\r\\n        \\r\\n\\t</head>\\r\\n\\t<body>\\r\\n        \\r\\n        \\r\\n        \\r\\n        \\r\\n        \\r\\n        \\r\\n        \\r\\n        \\r\\n        \\r\\n\\t\\t<div class="category_container">\\r\\n\\t\\t\\t<!-- Push Wrapper -->\\r\\n\\t\\t\\t<div class="mp-pusher" id="mp-pusher">\\r\\n\\r\\n\\t\\t\\t\\t<!-- mp-menu -->\\r\\n\\t\\t\\t\\t<nav id="mp-menu" class="mp-menu">\\r\\n\\t\\t\\t\\t\\t<div class="mp-level">\\r\\n\\t\\t\\t\\t\\t\\t<h2 class="icon icon-world">All Categories</h2>\\r\\n\\t\\t\\t\\t\\t\\t<ul>\\r\\n\\t\\t\\t\\t\\t\\t\\t<li class="icon icon-arrow-left">\\r\\n\\t\\t\\t\\t\\t\\t\\t\\t<a class="icon icon-display" href="#">Devices</a>\\r\\n\\t\\t\\t\\t\\t\\t\\t\\t<div class="mp-level">\\r\\n\\t\\t\\t\\t\\t\\t\\t\\t\\t<h2 class="icon icon-display">Devices</h2>\\r\\n\\t\\t\\t\\t\\t\\t\\t\\t\\t<a class="mp-back" href="#">back</a>\\r\\n\\t\\t\\t\\t\\t\\t\\t\\t\\t<ul>\\r\\n\\t\\t\\t\\t\\t\\t\\t\\t\\t\\t<li class="icon icon-arrow-left">\\r\\n\\t\\t\\t\\t\\t\\t\\t\\t\\t\\t\\t<a class="icon icon-phone" href="#">Mobile Phones</a>\\r\\n\\t\\t\\t\\t\\t\\t\\t\\t\\t\\t\\t<div class="mp-level">\\r\\n\\t\\t\\t\\t\\t\\t\\t\\t\\t\\t\\t\\t<h2>Mobile Phones</h2>\\r\\n\\t\\t\\t\\t\\t\\t\\t\\t\\t\\t\\t\\t<a class="mp-back" href="#">back</a>\\r\\n\\t\\t\\t\\t\\t\\t\\t\\t\\t\\t\\t\\t<ul>\\r\\n\\t\\t\\t\\t\\t\\t\\t\\t\\t\\t\\t\\t\\t<li><a href="#">Super Smart Phone</a></li>\\r\\n\\t\\t\\t\\t\\t\\t\\t\\t\\t\\t\\t\\t\\t<li><a href="#">Thin Magic Mobile</a></li>\\r\\n\\t\\t\\t\\t\\t\\t\\t\\t\\t\\t\\t\\t\\t<li><a href="#">Performance Crusher</a></li>\\r\\n\\t\\t\\t\\t\\t\\t\\t\\t\\t\\t\\t\\t\\t<li><a href="#">Futuristic Experience</a></li>\\r\\n\\t\\t\\t\\t\\t\\t\\t\\t\\t\\t\\t\\t</ul>\\r\\n\\t\\t\\t\\t\\t\\t\\t\\t\\t\\t\\t</div>\\r\\n\\t\\t\\t\\t\\t\\t\\t\\t\\t\\t</li>\\r\\n\\t\\t\\t\\t\\t\\t\\t\\t\\t\\t<li class="icon icon-arrow-left">\\r\\n\\t\\t\\t\\t\\t\\t\\t\\t\\t\\t\\t<a class="icon icon-tv" href="#">Computers</a>\\r\\n\\t\\t\\t\\t\\t\\t\\t\\t\\t\\t\\t<div class="mp-level">\\r\\n\\t\\t\\t\\t\\t\\t\\t\\t\\t\\t\\t\\t<h2>Computers</h2>\\r\\n\\t\\t\\t\\t\\t\\t\\t\\t\\t\\t\\t\\t<a class="mp-back" href="#">back</a>\\r\\n\\t\\t\\t\\t\\t\\t\\t\\t\\t\\t\\t\\t<ul>\\r\\n\\t\\t\\t\\t\\t\\t\\t\\t\\t\\t\\t\\t\\t<li><a href="#">Laptops</a></li>\\r\\n\\t\\t\\t\\t\\t\\t\\t\\t\\t\\t\\t\\t\\t<li><a href="#">PCs</a></li>\\r\\n\\t\\t\\t\\t\\t\\t\\t\\t\\t\\t\\t\\t\\t<li><a href="#">Laptop Accessories</a></li>\\r\\n\\t\\t\\t\\t\\t\\t\\t\\t\\t\\t\\t\\t\\t<li><a href="#">PC Accessories</a></li>\\r\\n\\t\\t\\t\\t\\t\\t\\t\\t\\t\\t\\t\\t\\t<li><a href="#">View All</a></li>\\r\\n\\t\\t\\t\\t\\t\\t\\t\\t\\t\\t\\t\\t</ul>\\r\\n\\t\\t\\t\\t\\t\\t\\t\\t\\t\\t\\t</div>\\r\\n\\t\\t\\t\\t\\t\\t\\t\\t\\t\\t</li>\\r\\n\\t\\t\\t\\t\\t\\t\\t\\t\\t\\t<li class="icon icon-arrow-left">\\r\\n\\t\\t\\t\\t\\t\\t\\t\\t\\t\\t\\t<a class="icon icon-camera" href="#">Cameras</a>\\r\\n\\t\\t\\t\\t\\t\\t\\t\\t\\t\\t\\t<div class="mp-level">\\r\\n\\t\\t\\t\\t\\t\\t\\t\\t\\t\\t\\t\\t<h2>Cameras</h2>\\r\\n\\t\\t\\t\\t\\t\\t\\t\\t\\t\\t\\t\\t<a class="mp-back" href="#">back</a>\\r\\n\\t\\t\\t\\t\\t\\t\\t\\t\\t\\t\\t\\t<ul>\\r\\n\\t\\t\\t\\t\\t\\t\\t\\t\\t\\t\\t\\t\\t<li><a href="#">DSLR</a></li>\\r\\n\\t\\t\\t\\t\\t\\t\\t\\t\\t\\t\\t\\t\\t<li><a href="#">Power Shooter</a></li>\\r\\n\\t\\t\\t\\t\\t\\t\\t\\t\\t\\t\\t\\t\\t<li><a href="#">Easy Photo Maker</a></li>\\r\\n\\t\\t\\t\\t\\t\\t\\t\\t\\t\\t\\t\\t\\t<li><a href="#">All Cameras</a></li>\\r\\n\\t\\t\\t\\t\\t\\t\\t\\t\\t\\t\\t\\t</ul>\\r\\n\\t\\t\\t\\t\\t\\t\\t\\t\\t\\t\\t</div>\\r\\n\\t\\t\\t\\t\\t\\t\\t\\t\\t\\t</li>\\r\\n\\t\\t\\t\\t\\t\\t\\t\\t\\t</ul>\\r\\n\\t\\t\\t\\t\\t\\t\\t\\t</div>\\r\\n\\t\\t\\t\\t\\t\\t\\t</li>\\r\\n\\t\\t\\t\\t\\t\\t\\t<li class="icon icon-arrow-left">\\r\\n\\t\\t\\t\\t\\t\\t\\t\\t<a class="icon icon-news" href="#">Books</a>\\r\\n\\t\\t\\t\\t\\t\\t\\t\\t<div class="mp-level">\\r\\n\\t\\t\\t\\t\\t\\t\\t\\t\\t<h2 class="icon icon-news">Books</h2>\\r\\n\\t\\t\\t\\t\\t\\t\\t\\t\\t<a class="mp-back" href="#">back</a>\\r\\n\\t\\t\\t\\t\\t\\t\\t\\t\\t<ul>\\r\\n\\t\\t\\t\\t\\t\\t\\t\\t\\t\\t<li><a href="#">Fiction</a></li>\\r\\n\\t\\t\\t\\t\\t\\t\\t\\t\\t\\t<li><a href="#">Science and Technology</a></li>\\r\\n\\t\\t\\t\\t\\t\\t\\t\\t\\t\\t<li><a href="#">Humor</a></li>\\r\\n\\t\\t\\t\\t\\t\\t\\t\\t\\t\\t<li><a href="#">Travel</a></li>\\r\\n\\t\\t\\t\\t\\t\\t\\t\\t\\t\\t<li><a href="#">Reference Books</a></li>\\r\\n\\t\\t\\t\\t\\t\\t\\t\\t\\t\\t<li><a href="#">All books</a></li>\\r\\n\\t\\t\\t\\t\\t\\t\\t\\t\\t</ul>\\r\\n\\t\\t\\t\\t\\t\\t\\t\\t</div>\\r\\n\\t\\t\\t\\t\\t\\t\\t</li>\\r\\n\\t\\t\\t\\t\\t\\t\\t<li class="icon icon-arrow-left">\\r\\n\\t\\t\\t\\t\\t\\t\\t\\t<a class="icon icon-shop" href="#">Store</a>\\r\\n\\t\\t\\t\\t\\t\\t\\t\\t<div class="mp-level">\\r\\n\\t\\t\\t\\t\\t\\t\\t\\t\\t<h2 class="icon icon-shop">Store</h2>\\r\\n\\t\\t\\t\\t\\t\\t\\t\\t\\t<a class="mp-back" href="#">back</a>\\r\\n\\t\\t\\t\\t\\t\\t\\t\\t\\t<ul>\\r\\n\\t\\t\\t\\t\\t\\t\\t\\t\\t\\t<li class="icon icon-arrow-left">\\r\\n\\t\\t\\t\\t\\t\\t\\t\\t\\t\\t\\t<a class="icon icon-t-shirt" href="#">Clothes</a>\\r\\n\\t\\t\\t\\t\\t\\t\\t\\t\\t\\t\\t<div class="mp-level">\\r\\n\\t\\t\\t\\t\\t\\t\\t\\t\\t\\t\\t\\t<h2 class="icon icon-t-shirt">Clothes</h2>\\r\\n\\t\\t\\t\\t\\t\\t\\t\\t\\t\\t\\t\\t<a class="mp-back" href="#">back</a>\\r\\n\\t\\t\\t\\t\\t\\t\\t\\t\\t\\t\\t\\t<ul>\\r\\n\\t\\t\\t\\t\\t\\t\\t\\t\\t\\t\\t\\t\\t<li class="icon icon-arrow-left">\\r\\n\\t\\t\\t\\t\\t\\t\\t\\t\\t\\t\\t\\t\\t\\t<a class="icon icon-female" href="#">Women\\\'s Clothing</a>\\r\\n\\t\\t\\t\\t\\t\\t\\t\\t\\t\\t\\t\\t\\t\\t<div class="mp-level">\\r\\n\\t\\t\\t\\t\\t\\t\\t\\t\\t\\t\\t\\t\\t\\t\\t<h2 class="icon icon-female">Women\\\'s Clothing</h2>\\r\\n\\t\\t\\t\\t\\t\\t\\t\\t\\t\\t\\t\\t\\t\\t\\t<a class="mp-back" href="#">back</a>\\r\\n\\t\\t\\t\\t\\t\\t\\t\\t\\t\\t\\t\\t\\t\\t\\t<ul>\\r\\n\\t\\t\\t\\t\\t\\t\\t\\t\\t\\t\\t\\t\\t\\t\\t\\t<li><a href="#">Tops</a></li>\\r\\n\\t\\t\\t\\t\\t\\t\\t\\t\\t\\t\\t\\t\\t\\t\\t\\t<li><a href="#">Dresses</a></li>\\r\\n\\t\\t\\t\\t\\t\\t\\t\\t\\t\\t\\t\\t\\t\\t\\t\\t<li><a href="#">Trousers</a></li>\\r\\n\\t\\t\\t\\t\\t\\t\\t\\t\\t\\t\\t\\t\\t\\t\\t\\t<li><a href="#">Shoes</a></li>\\r\\n\\t\\t\\t\\t\\t\\t\\t\\t\\t\\t\\t\\t\\t\\t\\t\\t<li><a href="#">Sale</a></li>\\r\\n\\t\\t\\t\\t\\t\\t\\t\\t\\t\\t\\t\\t\\t\\t\\t</ul>\\r\\n\\t\\t\\t\\t\\t\\t\\t\\t\\t\\t\\t\\t\\t\\t</div>\\r\\n\\t\\t\\t\\t\\t\\t\\t\\t\\t\\t\\t\\t\\t</li>\\r\\n\\t\\t\\t\\t\\t\\t\\t\\t\\t\\t\\t\\t\\t<li class="icon icon-arrow-left">\\r\\n\\t\\t\\t\\t\\t\\t\\t\\t\\t\\t\\t\\t\\t\\t<a class="icon icon-male" href="#">Men\\\'s Clothing</a>\\r\\n\\t\\t\\t\\t\\t\\t\\t\\t\\t\\t\\t\\t\\t\\t<div class="mp-level">\\r\\n\\t\\t\\t\\t\\t\\t\\t\\t\\t\\t\\t\\t\\t\\t\\t<h2 class="icon icon-male">Men\\\'s Clothing</h2>\\r\\n\\t\\t\\t\\t\\t\\t\\t\\t\\t\\t\\t\\t\\t\\t\\t<a class="mp-back" href="#">back</a>\\r\\n\\t\\t\\t\\t\\t\\t\\t\\t\\t\\t\\t\\t\\t\\t\\t<ul>\\r\\n\\t\\t\\t\\t\\t\\t\\t\\t\\t\\t\\t\\t\\t\\t\\t\\t<li><a href="#">Shirts</a></li>\\r\\n\\t\\t\\t\\t\\t\\t\\t\\t\\t\\t\\t\\t\\t\\t\\t\\t<li><a href="#">Trousers</a></li>\\r\\n\\t\\t\\t\\t\\t\\t\\t\\t\\t\\t\\t\\t\\t\\t\\t\\t<li><a href="#">Shoes</a></li>\\r\\n\\t\\t\\t\\t\\t\\t\\t\\t\\t\\t\\t\\t\\t\\t\\t\\t<li><a href="#">Sale</a></li>\\r\\n\\t\\t\\t\\t\\t\\t\\t\\t\\t\\t\\t\\t\\t\\t\\t</ul>\\r\\n\\t\\t\\t\\t\\t\\t\\t\\t\\t\\t\\t\\t\\t\\t</div>\\r\\n\\t\\t\\t\\t\\t\\t\\t\\t\\t\\t\\t\\t\\t</li>\\r\\n\\t\\t\\t\\t\\t\\t\\t\\t\\t\\t\\t\\t</ul>\\r\\n\\t\\t\\t\\t\\t\\t\\t\\t\\t\\t\\t</div>\\r\\n\\t\\t\\t\\t\\t\\t\\t\\t\\t\\t</li>\\r\\n\\t\\t\\t\\t\\t\\t\\t\\t\\t\\t<li>\\r\\n\\t\\t\\t\\t\\t\\t\\t\\t\\t\\t\\t<a class="icon icon-diamond" href="#">Jewelry</a>\\r\\n\\t\\t\\t\\t\\t\\t\\t\\t\\t\\t</li>\\r\\n\\t\\t\\t\\t\\t\\t\\t\\t\\t\\t<li>\\r\\n\\t\\t\\t\\t\\t\\t\\t\\t\\t\\t\\t<a class="icon icon-music" href="#">Music</a>\\r\\n\\t\\t\\t\\t\\t\\t\\t\\t\\t\\t</li>\\r\\n\\t\\t\\t\\t\\t\\t\\t\\t\\t\\t<li>\\r\\n\\t\\t\\t\\t\\t\\t\\t\\t\\t\\t\\t<a class="icon icon-food" href="#">Grocery</a>\\r\\n\\t\\t\\t\\t\\t\\t\\t\\t\\t\\t</li>\\r\\n\\t\\t\\t\\t\\t\\t\\t\\t\\t</ul>\\r\\n\\t\\t\\t\\t\\t\\t\\t\\t</div>\\r\\n\\t\\t\\t\\t\\t\\t\\t</li>\\r\\n\\t\\t\\t\\t\\t\\t\\t<li><a class="icon icon-photo" href="#">Miscellaneous</a></li>\\r\\n\\t\\t\\t\\t\\t\\t\\t<li><a class="icon icon-wallet" href="#">Credits</a></li>\\r\\n\\t\\t\\t\\t\\t\\t</ul>\\r\\n\\t\\t\\t\\t\\t\\t\\t\\r\\n\\t\\t\\t\\t\\t</div>\\r\\n\\t\\t\\t\\t</nav>\\r\\n\\t\\t\\t\\t<!-- /mp-menu -->\\r\\n\\r\\n\\t\\t\\t\\t<div class="scroller"><!-- this is for emulating position fixed of the nav -->\\r\\n\\t\\t\\t\\t\\t<div class="scroller-inner">\\r\\n\\t\\t\\t\\t\\t\\t\\r\\n\\t\\t\\t\\t\\t\\t<div class="content clearfix">\\r\\n\\t\\t\\t\\t\\t\\t\\t<div class="block block-40 clearfix">\\r\\n                                \\r\\n                                \\r\\n                                \\r\\n                                \\r\\n                                <div class="container">\\r\\n\\t\\t\\t<div class="component">\\r\\n                <h2>IIIT Bidding Portal</h2>\\r\\n\\t\\t\\t\\t<!-- Start Nav Structure -->\\r\\n\\t\\t\\t\\t<button class="cn-button" id="cn-button">Go</button>\\r\\n\\t\\t\\t\\t<div class="cn-wrapper" id="cn-wrapper">\\r\\n\\t\\t\\t\\t\\t<ul>\\r\\n\\t\\t\\t\\t\\t\\t<li><a href="\', escape=False)\nresponse.write(URL(\'default\', \'index\'))\nresponse.write(\'"><span>Home</span></a></li>\\r\\n\\t\\t\\t\\t\\t\\t<li><a href="\', escape=False)\nresponse.write(URL(\'default\', \'sell\'))\nresponse.write(\'"><span>Sell</span></a></li>\\r\\n\\t\\t\\t\\t\\t\\t<li><a href="\', escape=False)\nresponse.write(URL(\'default\', \'myuploadeditems\'))\nresponse.write(\'"><span>My items</span></a></li>\\r\\n\\t\\t\\t\\t\\t\\t<li><a href="\', escape=False)\nresponse.write(URL(\'default\', \'manage\'))\nresponse.write(\'"><span>Manage</span></a></li>\\r\\n                        <li><a href="\', escape=False)\nresponse.write(URL(\'default\', \'user/profile\'))\nresponse.write(\'"><span>Profile</span></a></li>\\r\\n                        <li><a href="\', escape=False)\nresponse.write(URL(\'default\', \'user/change_password\'))\nresponse.write(\'"><span>Password</span></a></li>\\r\\n                        <li><a href="#"><span>About</span></a></li>\\r\\n\\t\\t\\t\\t\\t </ul>\\r\\n\\t\\t\\t\\t</div>\\r\\n\\t\\t\\t\\t<!-- End of Nav Structure -->\\r\\n\\t\\t\\t</div>\\r\\n            <br /><br /><br />\\r\\n\\t\\t\\t<section>\\r\\n           \\r\\n\\r\\n\\t\\t\\t</section>\\r\\n\\t\\t</div><!-- /container -->\\r\\n\\t\\t<script src="\', escape=False)\nresponse.write(URL(\'static\',\'js/circular/polyfills.js\'))\nresponse.write(\'"></script>\\r\\n\\t\\t<script src="\', escape=False)\nresponse.write(URL(\'static\',\'js/circular/demo2.js\'))\nresponse.write(\'"></script>\\r\\n\\t\\t\\t\\t\\t\\t\\t</div>\\r\\n\\t\\t\\t\\t\\t\\t\\t\\t<p><a href="#" id="trigger" class="menu-trigger">Categories</a></p>\\r\\n                                \\r\\n                            \\r\\n                            <div id = "xyz">\\r\\n                                <!--content here -->\\r\\n                                \\r\\n                                \', escape=False)\nresponse.write(\'\\r\\n\\r\\n\\r\\n\\r\\n                \', escape=False)\nfor oneproduct in product:\n    response.write(\'\\r\\n\\r\\n<table style="width:100%">\\r\\n<tr>\\r\\n    \', escape=False)\n    if len(oneproduct.image_no_1)==0 and len(oneproduct.image_no_2)==0 and len(oneproduct.image_no_3)==0 and len(oneproduct.image_no_4)==0 and len(oneproduct.image_no_5)==0:\n        response.write(\'\\r\\n        <td><img src="\', escape=False)\n        response.write(URL(\'static/images\',\'No_image_available.jpg\'))\n        response.write(\'" /></td>\\r\\n    \', escape=False)\n    else:\n        response.write(\'\\r\\n        \', escape=False)\n        if len(oneproduct.image_no_1)!=0:\n            response.write(\'\\r\\n            <td><img src="\', escape=False)\n            response.write(URL(\'download\',args=oneproduct.image_no_1))\n            response.write(\'" /></td>\\r\\n        \', escape=False)\n            pass\n        response.write(\'\\r\\n        \', escape=False)\n        if len(oneproduct.image_no_2)!=0:\n            response.write(\'\\r\\n            <td><img src="\', escape=False)\n            response.write(URL(\'download\',args=oneproduct.image_no_2))\n            response.write(\'" /></td>\\r\\n        \', escape=False)\n            pass\n        response.write(\'\\r\\n        \', escape=False)\n        if len(oneproduct.image_no_3)!=0:\n            response.write(\'\\r\\n            <td><img src="\', escape=False)\n            response.write(URL(\'download\',args=oneproduct.image_no_3))\n            response.write(\'" /></td>\\r\\n        \', escape=False)\n            pass\n        response.write(\'\\r\\n        \', escape=False)\n        if len(oneproduct.image_no_4)!=0:\n            response.write(\'\\r\\n            <td><img src="\', escape=False)\n            response.write(URL(\'download\',args=oneproduct.image_no_4))\n            response.write(\'" /></td>\\r\\n        \', escape=False)\n            pass\n        response.write(\'\\r\\n        \', escape=False)\n        if len(oneproduct.image_no_5)!=0:\n            response.write(\'\\r\\n            <td><img src="\', escape=False)\n            response.write(URL(\'download\',args=oneproduct.image_no_5))\n            response.write(\'" /></td>\\r\\n        \', escape=False)\n            pass\n        response.write(\'\\r\\n    \', escape=False)\n        pass\n    response.write(\'\\r\\n</tr>\\r\\n    \\r\\n</table>\\r\\n                \\r\\n                <br><meter max=100 min=0 value=\', escape=False)\n    response.write(oneproduct.bid_density)\n    response.write(\' high=65 low=15 optimum=40></meter><br><br>\\r\\n                \\r\\n<table style="width:80%">\\r\\n    <tr>\\r\\n        <td><h2>\', escape=False)\n    response.write(oneproduct.product_name)\n    response.write(\'</h2></td>\\r\\n    </tr>\\r\\n    <tr>\\r\\n        <td><h3>\\r\\n            Seller : \', escape=False)\n    response.write(oneproduct.created_by.first_name)\n    response.write(\' \', escape=False)\n    response.write(oneproduct.created_by.last_name)\n    response.write(\'<br>\\r\\n            Email : \', escape=False)\n    response.write(oneproduct.created_by.email)\n    response.write(\'\\r\\n            </h3></td>\\r\\n    </tr>\\r\\n    <tr>\\r\\n        <td><h4>\\r\\n            Description:\\r\\n            </h4>\\r\\n            <p>\\r\\n            \', escape=False)\n    response.write(oneproduct.description)\n    response.write(\'\\r\\n            </p>\\r\\n        </td>\\r\\n    </tr>\\r\\n    <tr>\\r\\n        <td>\\r\\n            <h4>\\r\\n                Purchase Date : \\r\\n             </h4>\\r\\n        </td>\\r\\n    </tr>\\r\\n    <tr>\\r\\n        <td>\\r\\n            <h4>\\r\\n            Starting Price : \\xe2\\x82\\xb9 \', escape=False)\n    response.write(oneproduct.starting_price)\n    response.write(\'\\r\\n            </h4>\\r\\n        </td>\\r\\n        <td>\\r\\n            <h4>\\r\\n            Bid Ending Date :  \', escape=False)\n    response.write(oneproduct.end_date_time)\n    response.write(\' IST\\r\\n            </h4>\\r\\n        </td>\\r\\n    </tr>\\r\\n    <tr>\\r\\n        <td>\\r\\n            <h4>\\r\\n                \', escape=False)\n    response.write(request.now)\n    response.write(\'<br>\\r\\n                Time left : \', escape=False)\n    response.write((oneproduct.end_date_time - request.now))\n    response.write(\'\\r\\n            </h4>\\r\\n        </td>\\r\\n    </tr>\\r\\n    <tr>\\r\\n        \', escape=False)\n    if oneproduct.current_highest_bidder == \'none\' :\n        response.write(\'\\r\\n        <td><h4>\\r\\n            No bids yet....\\r\\n            </h4></td>\\r\\n        \', escape=False)\n        pass\n    response.write(\'\\r\\n       \', escape=False)\n    if oneproduct.current_highest_bidder != \'none\' :\n        response.write(\'\\r\\n        <td>\\r\\n            \', escape=False)\n        name = db(db.auth_user.id==oneproduct.current_highest_bidder).select()\n        response.write(\'\\r\\n            \', escape=False)\n        name2=name[0]\n        response.write(\'\\r\\n            <h4>\\r\\n                Highest Bidder : \', escape=False)\n        response.write(LOAD(\'single_auto_refresh\',\'ref_func_name_details.load\',args=[prod_id],ajax=True,timeout=5000, times="infinity"))\n        response.write(\'\\r\\n            </h4>\\r\\n        </td>\\r\\n        <td>\\r\\n            <h4>\\r\\n                \', escape=False)\n        prod_id=oneproduct.id\n        response.write(\'\\r\\n                Highest Bid : \\xe2\\x82\\xb9 \', escape=False)\n        response.write(LOAD(\'single_auto_refresh\',\'ref_func_bid_value.load\',args=[prod_id],ajax=True,timeout=5000, times="infinity"))\n        response.write(\'\\r\\n            </h4>\\r\\n        </td>\\r\\n        \', escape=False)\n        pass\n    response.write(\'\\r\\n            \\r\\n    </tr>\\r\\n\', escape=False)\n    pass\nresponse.write(\'\\r\\n    </table>\\r\\n<br />\\r\\n\\r\\n  \', escape=False)\nresponse.write(form2)\nresponse.write(\'\\r\\n\\r\\n\\r\\n\\r\\n<h3 align="center">\\r\\n    * Bidding details refreshing every 5 seconds. *\\r\\n</h3>\\r\\n<br /><br /><br /><br />\\r\\n\', escape=False)\nresponse.write(\'\\r\\n                                \\r\\n                                \\r\\n                            </div>\\r\\n                                \\r\\n\\t\\t\\r\\n\\r\\n\\t\\t\\t\\t\\t\\t</div>\\r\\n\\t\\t\\t\\t\\t</div><!-- /scroller-inner -->\\r\\n\\t\\t\\t\\t</div><!-- /scroller -->\\r\\n\\r\\n\\t\\t\\t</div><!-- /pusher -->\\r\\n\\r\\n                \\r\\n                \\r\\n                \\r\\n                \\r\\n\\r\\n\\t\\t</div><!-- /container -->\\r\\n\\t\\t<script src="\', escape=False)\nresponse.write(URL(\'static\',\'js/categoriesmenu/classie.js\'))\nresponse.write(\'"></script>\\r\\n\\t\\t<script src="\', escape=False)\nresponse.write(URL(\'static\',\'js/categoriesmenu/mlpushmenu.js\'))\nresponse.write(\'"></script>\\r\\n\\t\\t<script>\\r\\n\\t\\t\\tnew mlPushMenu( document.getElementById( \\\'mp-menu\\\' ), document.getElementById( \\\'trigger\\\' ) );\\r\\n\\t\\t</script>\\r\\n        \\r\\n        \\r\\n        \\r\\n        \\r\\n        \\r\\n        \\r\\n        \\r\\n\\r\\n        \\r\\n        \\r\\n        \\r\\n        \\r\\n        \\r\\n\\t</body>\\r\\n</html>\\r\\n\', escape=False)'
p7
sS'snapshot'
p8
(dp9
S'exception'
p10
(dp11
S'__hash__'
p12
S"<method-wrapper '__hash__' of exceptions.NameError object>"
p13
sS'__setattr__'
p14
S"<method-wrapper '__setattr__' of exceptions.NameError object>"
p15
sS'__reduce_ex__'
p16
S'<built-in method __reduce_ex__ of exceptions.NameError object>'
p17
sS'__getslice__'
p18
S"<method-wrapper '__getslice__' of exceptions.NameError object>"
p19
sS'__getitem__'
p20
S"<method-wrapper '__getitem__' of exceptions.NameError object>"
p21
sS'__setstate__'
p22
S'<built-in method __setstate__ of exceptions.NameError object>'
p23
sS'__reduce__'
p24
S'<built-in method __reduce__ of exceptions.NameError object>'
p25
sS'__str__'
p26
S"<method-wrapper '__str__' of exceptions.NameError object>"
p27
sS'__format__'
p28
S'<built-in method __format__ of exceptions.NameError object>'
p29
sS'__getattribute__'
p30
S"<method-wrapper '__getattribute__' of exceptions.NameError object>"
p31
sS'__class__'
p32
S"<type 'exceptions.NameError'>"
p33
sS'__unicode__'
p34
S'<built-in method __unicode__ of exceptions.NameError object>'
p35
sS'__delattr__'
p36
S"<method-wrapper '__delattr__' of exceptions.NameError object>"
p37
sS'__subclasshook__'
p38
S'<built-in method __subclasshook__ of type object>'
p39
sS'__repr__'
p40
S"<method-wrapper '__repr__' of exceptions.NameError object>"
p41
sS'args'
p42
S'("name \'prod_id\' is not defined",)'
p43
sS'__dict__'
p44
S'{}'
p45
sS'__sizeof__'
p46
S'<built-in method __sizeof__ of exceptions.NameError object>'
p47
sS'__doc__'
p48
S"'Name not found globally.'"
p49
sS'__init__'
p50
S"<method-wrapper '__init__' of exceptions.NameError object>"
p51
sS'__new__'
p52
S'<built-in method __new__ of type object>'
p53
ssS'evalue'
p54
S"name 'prod_id' is not defined"
p55
sS'request'
p56
cgluon.html
XML_unpickle
p57
(S's\x85j\x00\x00<div><table><tr><td style="font-weight:bold;vertical-align:top;">ajax</td><td style="vertical-align:top;">:</td><td><div>False</div></td></tr><tr><td style="font-weight:bold;vertical-align:top;">application</td><td style="vertical-align:top;">:</td><td><div>Bidding_Portal</div></td></tr><tr><td style="font-weight:bold;vertical-align:top;">args</td><td style="vertical-align:top;">:</td><td><div><table><tr><td><div>14</div></td></tr></table></div></td></tr><tr><td style="font-weight:bold;vertical-align:top;">cid</td><td style="vertical-align:top;">:</td><td><div>None</div></td></tr><tr><td style="font-weight:bold;vertical-align:top;">client</td><td style="vertical-align:top;">:</td><td><div>127.0.0.1</div></td></tr><tr><td style="font-weight:bold;vertical-align:top;">controller</td><td style="vertical-align:top;">:</td><td><div>default</div></td></tr><tr><td style="font-weight:bold;vertical-align:top;">cookies</td><td style="vertical-align:top;">:</td><td><div><table><tr><td style="font-weight:bold;vertical-align:top;">session_id_admin</td><td style="vertical-align:top;">:</td><td><div>127.0.0.1-bb857aef-e6b5-42d7-ad07-39641685fc3c<table><tr><td style="font-weight:bold;vertical-align:top;">comment</td><td style="vertical-align:top;">:</td><td><div></div></td></tr><tr><td style="font-weight:bold;vertical-align:top;">domain</td><td style="vertical-align:top;">:</td><td><div></div></td></tr><tr><td style="font-weight:bold;vertical-align:top;">expires</td><td style="vertical-align:top;">:</td><td><div></div></td></tr><tr><td style="font-weight:bold;vertical-align:top;">httponly</td><td style="vertical-align:top;">:</td><td><div></div></td></tr><tr><td style="font-weight:bold;vertical-align:top;">max-age</td><td style="vertical-align:top;">:</td><td><div></div></td></tr><tr><td style="font-weight:bold;vertical-align:top;">path</td><td style="vertical-align:top;">:</td><td><div></div></td></tr><tr><td style="font-weight:bold;vertical-align:top;">secure</td><td style="vertical-align:top;">:</td><td><div></div></td></tr><tr><td style="font-weight:bold;vertical-align:top;">version</td><td style="vertical-align:top;">:</td><td><div></div></td></tr></table></div></td></tr><tr><td style="font-weight:bold;vertical-align:top;">session_id_ajax_example</td><td style="vertical-align:top;">:</td><td><div>127.0.0.1-e5af34a4-53d8-47a2-8b08-10b3804ed9f1<table><tr><td style="font-weight:bold;vertical-align:top;">comment</td><td style="vertical-align:top;">:</td><td><div></div></td></tr><tr><td style="font-weight:bold;vertical-align:top;">domain</td><td style="vertical-align:top;">:</td><td><div></div></td></tr><tr><td style="font-weight:bold;vertical-align:top;">expires</td><td style="vertical-align:top;">:</td><td><div></div></td></tr><tr><td style="font-weight:bold;vertical-align:top;">httponly</td><td style="vertical-align:top;">:</td><td><div></div></td></tr><tr><td style="font-weight:bold;vertical-align:top;">max-age</td><td style="vertical-align:top;">:</td><td><div></div></td></tr><tr><td style="font-weight:bold;vertical-align:top;">path</td><td style="vertical-align:top;">:</td><td><div></div></td></tr><tr><td style="font-weight:bold;vertical-align:top;">secure</td><td style="vertical-align:top;">:</td><td><div></div></td></tr><tr><td style="font-weight:bold;vertical-align:top;">version</td><td style="vertical-align:top;">:</td><td><div></div></td></tr></table></div></td></tr><tr><td style="font-weight:bold;vertical-align:top;">session_id_autorefresh</td><td style="vertical-align:top;">:</td><td><div>127.0.0.1-82f94bda-02cc-4ccc-b14c-ee122acf548f<table><tr><td style="font-weight:bold;vertical-align:top;">comment</td><td style="vertical-align:top;">:</td><td><div></div></td></tr><tr><td style="font-weight:bold;vertical-align:top;">domain</td><td style="vertical-align:top;">:</td><td><div></div></td></tr><tr><td style="font-weight:bold;vertical-align:top;">expires</td><td style="vertical-align:top;">:</td><td><div></div></td></tr><tr><td style="font-weight:bold;vertical-align:top;">httponly</td><td style="vertical-align:top;">:</td><td><div></div></td></tr><tr><td style="font-weight:bold;vertical-align:top;">max-age</td><td style="vertical-align:top;">:</td><td><div></div></td></tr><tr><td style="font-weight:bold;vertical-align:top;">path</td><td style="vertical-align:top;">:</td><td><div></div></td></tr><tr><td style="font-weight:bold;vertical-align:top;">secure</td><td style="vertical-align:top;">:</td><td><div></div></td></tr><tr><td style="font-weight:bold;vertical-align:top;">version</td><td style="vertical-align:top;">:</td><td><div></div></td></tr></table></div></td></tr><tr><td style="font-weight:bold;vertical-align:top;">session_id_bidding_portal</td><td style="vertical-align:top;">:</td><td><div>127.0.0.1-89382f9c-381e-4a6e-950e-a301ca52f706<table><tr><td style="font-weight:bold;vertical-align:top;">comment</td><td style="vertical-align:top;">:</td><td><div></div></td></tr><tr><td style="font-weight:bold;vertical-align:top;">domain</td><td style="vertical-align:top;">:</td><td><div></div></td></tr><tr><td style="font-weight:bold;vertical-align:top;">expires</td><td style="vertical-align:top;">:</td><td><div></div></td></tr><tr><td style="font-weight:bold;vertical-align:top;">httponly</td><td style="vertical-align:top;">:</td><td><div></div></td></tr><tr><td style="font-weight:bold;vertical-align:top;">max-age</td><td style="vertical-align:top;">:</td><td><div></div></td></tr><tr><td style="font-weight:bold;vertical-align:top;">path</td><td style="vertical-align:top;">:</td><td><div></div></td></tr><tr><td style="font-weight:bold;vertical-align:top;">secure</td><td style="vertical-align:top;">:</td><td><div></div></td></tr><tr><td style="font-weight:bold;vertical-align:top;">version</td><td style="vertical-align:top;">:</td><td><div></div></td></tr></table></div></td></tr><tr><td style="font-weight:bold;vertical-align:top;">session_id_welcome</td><td style="vertical-align:top;">:</td><td><div>127.0.0.1-56ea1afd-a45a-4e62-886e-e7ea5e9519f8<table><tr><td style="font-weight:bold;vertical-align:top;">comment</td><td style="vertical-align:top;">:</td><td><div></div></td></tr><tr><td style="font-weight:bold;vertical-align:top;">domain</td><td style="vertical-align:top;">:</td><td><div></div></td></tr><tr><td style="font-weight:bold;vertical-align:top;">expires</td><td style="vertical-align:top;">:</td><td><div></div></td></tr><tr><td style="font-weight:bold;vertical-align:top;">httponly</td><td style="vertical-align:top;">:</td><td><div></div></td></tr><tr><td style="font-weight:bold;vertical-align:top;">max-age</td><td style="vertical-align:top;">:</td><td><div></div></td></tr><tr><td style="font-weight:bold;vertical-align:top;">path</td><td style="vertical-align:top;">:</td><td><div></div></td></tr><tr><td style="font-weight:bold;vertical-align:top;">secure</td><td style="vertical-align:top;">:</td><td><div></div></td></tr><tr><td style="font-weight:bold;vertical-align:top;">version</td><td style="vertical-align:top;">:</td><td><div></div></td></tr></table></div></td></tr></table></div></td></tr><tr><td style="font-weight:bold;vertical-align:top;">env</td><td style="vertical-align:top;">:</td><td><div><table><tr><td style="font-weight:bold;vertical-align:top;">HTTP_ACCEPT</td><td style="vertical-align:top;">:</td><td><div>text/html,application/xhtml+xml,application/xml;q=0.9,*/*;q=0.8</div></td></tr><tr><td style="font-weight:bold;vertical-align:top;">HTTP_ACCEPT_ENCODING</td><td style="vertical-align:top;">:</td><td><div>gzip, deflate</div></td></tr><tr><td style="font-weight:bold;vertical-align:top;">HTTP_ACCEPT_LANGUAGE</td><td style="vertical-align:top;">:</td><td><div>en-US,en;q=0.5</div></td></tr><tr><td style="font-weight:bold;vertical-align:top;">HTTP_CACHE_CONTROL</td><td style="vertical-align:top;">:</td><td><div>max-age=0</div></td></tr><tr><td style="font-weight:bold;vertical-align:top;">HTTP_CONNECTION</td><td style="vertical-align:top;">:</td><td><div>keep-alive</div></td></tr><tr><td style="font-weight:bold;vertical-align:top;">HTTP_COOKIE</td><td style="vertical-align:top;">:</td><td><div>session_id_welcome=127.0.0.1-56ea1afd-a45a-4e62-886e-e7ea5e9519f8; session_id_admin=127.0.0.1-bb857aef-e6b5-42d7-ad07-39641685fc3c; session_id_autorefresh=127.0.0.1-82f94bda-02cc-4ccc-b14c-ee122acf548f; session_id_bidding_portal=127.0.0.1-89382f9c-381e-4a6e-950e-a301ca52f706; session_id_ajax_example=127.0.0.1-e5af34a4-53d8-47a2-8b08-10b3804ed9f1</div></td></tr><tr><td style="font-weight:bold;vertical-align:top;">HTTP_HOST</td><td style="vertical-align:top;">:</td><td><div>127.0.0.1:8000</div></td></tr><tr><td style="font-weight:bold;vertical-align:top;">HTTP_USER_AGENT</td><td style="vertical-align:top;">:</td><td><div>Mozilla/5.0 (Windows NT 6.3; WOW64; rv:37.0) Gecko/20100101 Firefox/37.0</div></td></tr><tr><td style="font-weight:bold;vertical-align:top;">PATH_INFO</td><td style="vertical-align:top;">:</td><td><div>/Bidding_Portal/default/productpage/14</div></td></tr><tr><td style="font-weight:bold;vertical-align:top;">QUERY_STRING</td><td style="vertical-align:top;">:</td><td><div></div></td></tr><tr><td style="font-weight:bold;vertical-align:top;">REMOTE_ADDR</td><td style="vertical-align:top;">:</td><td><div>127.0.0.1</div></td></tr><tr><td style="font-weight:bold;vertical-align:top;">REMOTE_PORT</td><td style="vertical-align:top;">:</td><td><div>2046</div></td></tr><tr><td style="font-weight:bold;vertical-align:top;">REQUEST_METHOD</td><td style="vertical-align:top;">:</td><td><div>GET</div></td></tr><tr><td style="font-weight:bold;vertical-align:top;">SCRIPT_NAME</td><td style="vertical-align:top;">:</td><td><div></div></td></tr><tr><td style="font-weight:bold;vertical-align:top;">SERVER_NAME</td><td style="vertical-align:top;">:</td><td><div>akatsuki</div></td></tr><tr><td style="font-weight:bold;vertical-align:top;">SERVER_PORT</td><td style="vertical-align:top;">:</td><td><div>8000</div></td></tr><tr><td style="font-weight:bold;vertical-align:top;">SERVER_PROTOCOL</td><td style="vertical-align:top;">:</td><td><div>HTTP/1.1</div></td></tr><tr><td style="font-weight:bold;vertical-align:top;">SERVER_SOFTWARE</td><td style="vertical-align:top;">:</td><td><div>Rocket 1.2.6</div></td></tr><tr><td style="font-weight:bold;vertical-align:top;">app_folders</td><td style="vertical-align:top;">:</td><td><div>set([&#x27;E:\\\\windows_web2py\\\\web2py_win\\\\web2py\\\\applications\\\\admin\\\\&#x27;, &#x27;E:\\\\windows_web2py\\\\web2py_win\\\\web2py\\\\applications\\\\ajax_example\\\\&#x27;, &#x27;E:\\\\windows_web2py\\\\web2py_win\\\\web2py\\\\applications\\\\Bidding_Portal\\\\&#x27;, &#x27;E:\\\\windows_web2py\\\\web2py_win\\\\web2py\\\\applications\\\\welcome\\\\&#x27;, &#x27;E:\\\\windows_web2py\\\\web2py_win\\\\web2py\\\\applications\\\\autorefresh\\\\&#x27;])</div></td></tr><tr><td style="font-weight:bold;vertical-align:top;">applications_parent</td><td style="vertical-align:top;">:</td><td><div>E:\\windows_web2py\\web2py_win\\web2py</div></td></tr><tr><td style="font-weight:bold;vertical-align:top;">cmd_args</td><td style="vertical-align:top;">:</td><td><div><table></table></div></td></tr><tr><td style="font-weight:bold;vertical-align:top;">cmd_options</td><td style="vertical-align:top;">:</td><td><div>&lt;Values at 0x287d710: {&#x27;verbose&#x27;: False, &#x27;ip&#x27;: &#x27;127.0.0.1&#x27;, &#x27;debuglevel&#x27;: 30, &#x27;with_scheduler&#x27;: False, &#x27;ips&#x27;: [&#x27;fe80::248b:3a17:3f57:d4f5%10&#x27;, &#x27;2001:0:5ef5:79fb:248b:3a17:3f57:d4f5&#x27;, &#x27;fe80::a9e1:24b0:fe18:a8e1%3&#x27;, &#x27;192.168.43.10&#x27;], &#x27;shutdown_timeout&#x27;: 5, &#x27;taskbar&#x27;: False, &#x27;with_coverage&#x27;: False, &#x27;scheduler_groups&#x27;: None, &#x27;port&#x27;: 8000, &#x27;maxthreads&#x27;: None, &#x27;softcron&#x27;: False, &#x27;server_name&#x27;: &#x27;akatsuki&#x27;, &#x27;bpython&#x27;: False, &#x27;nogui&#x27;: False, &#x27;pid_filename&#x27;: &#x27;httpserver.pid&#x27;, &#x27;print_errors&#x27;: False, &#x27;extcron&#x27;: False, &#x27;runcron&#x27;: False, &#x27;run_system_tests&#x27;: False, &#x27;test&#x27;: None, &#x27;folder&#x27;: &#x27;E:\\\\windows_web2py\\\\web2py_win\\\\web2py&#x27;, &#x27;config&#x27;: &#x27;&#x27;, &#x27;minthreads&#x27;: None, &#x27;shell&#x27;: None, &#x27;run&#x27;: &#x27;&#x27;, &#x27;log_filename&#x27;: &#x27;httpserver.log&#x27;, &#x27;profiler_dir&#x27;: None, &#x27;args&#x27;: [&#x27;&#x27;], &#x27;socket_timeout&#x27;: 5, &#x27;ssl_ca_certificate&#x27;: None, &#x27;scheduler&#x27;: None, &#x27;interfaces&#x27;: None, &#x27;ssl_private_key&#x27;: &#x27;&#x27;, &#x27;gae&#x27;: None, &#x27;password&#x27;: &#x27;&lt;ask&gt;&#x27;, &#x27;request_queue_size&#x27;: 5, &#x27;ssl_certificate&#x27;: &#x27;&#x27;, &#x27;cronjob&#x27;: False, &#x27;numthreads&#x27;: None, &#x27;quiet&#x27;: False, &#x27;import_models&#x27;: False, &#x27;timeout&#x27;: 10, &#x27;plain&#x27;: False, &#x27;nobanner&#x27;: False}&gt;</div></td></tr><tr><td style="font-weight:bold;vertical-align:top;">db_sessions</td><td style="vertical-align:top;">:</td><td><div>set([])</div></td></tr><tr><td style="font-weight:bold;vertical-align:top;">debugging</td><td style="vertical-align:top;">:</td><td><div>True</div></td></tr><tr><td style="font-weight:bold;vertical-align:top;">gluon_parent</td><td style="vertical-align:top;">:</td><td><div>E:\\windows_web2py\\web2py_win\\web2py</div></td></tr><tr><td style="font-weight:bold;vertical-align:top;">http_accept</td><td style="vertical-align:top;">:</td><td><div>text/html,application/xhtml+xml,application/xml;q=0.9,*/*;q=0.8</div></td></tr><tr><td style="font-weight:bold;vertical-align:top;">http_accept_encoding</td><td style="vertical-align:top;">:</td><td><div>gzip, deflate</div></td></tr><tr><td style="font-weight:bold;vertical-align:top;">http_accept_language</td><td style="vertical-align:top;">:</td><td><div>en-US,en;q=0.5</div></td></tr><tr><td style="font-weight:bold;vertical-align:top;">http_cache_control</td><td style="vertical-align:top;">:</td><td><div>max-age=0</div></td></tr><tr><td style="font-weight:bold;vertical-align:top;">http_connection</td><td style="vertical-align:top;">:</td><td><div>keep-alive</div></td></tr><tr><td style="font-weight:bold;vertical-align:top;">http_cookie</td><td style="vertical-align:top;">:</td><td><div>session_id_welcome=127.0.0.1-56ea1afd-a45a-4e62-886e-e7ea5e9519f8; session_id_admin=127.0.0.1-bb857aef-e6b5-42d7-ad07-39641685fc3c; session_id_autorefresh=127.0.0.1-82f94bda-02cc-4ccc-b14c-ee122acf548f; session_id_bidding_portal=127.0.0.1-89382f9c-381e-4a6e-950e-a301ca52f706; session_id_ajax_example=127.0.0.1-e5af34a4-53d8-47a2-8b08-10b3804ed9f1</div></td></tr><tr><td style="font-weight:bold;vertical-align:top;">http_host</td><td style="vertical-align:top;">:</td><td><div>127.0.0.1:8000</div></td></tr><tr><td style="font-weight:bold;vertical-align:top;">http_user_agent</td><td style="vertical-align:top;">:</td><td><div>Mozilla/5.0 (Windows NT 6.3; WOW64; rv:37.0) Gecko/20100101 Firefox/37.0</div></td></tr><tr><td style="font-weight:bold;vertical-align:top;">is_jython</td><td style="vertical-align:top;">:</td><td><div>False</div></td></tr><tr><td style="font-weight:bold;vertical-align:top;">is_pypy</td><td style="vertical-align:top;">:</td><td><div>False</div></td></tr><tr><td style="font-weight:bold;vertical-align:top;">is_source</td><td style="vertical-align:top;">:</td><td><div>False</div></td></tr><tr><td style="font-weight:bold;vertical-align:top;">local_hosts</td><td style="vertical-align:top;">:</td><td><div><table><tr><td><div>akatsuki</div></td></tr><tr><td><div>fe80::a9e1:24b0:fe18:a8e1%3</div></td></tr><tr><td><div>fe80::248b:3a17:3f57:d4f5%10</div></td></tr><tr><td><div>2001:0:5ef5:79fb:248b:3a17:3f57:d4f5</div></td></tr><tr><td><div>::ffff:127.0.0.1</div></td></tr><tr><td><div>::1</div></td></tr><tr><td><div>192.168.43.10</div></td></tr><tr><td><div>127.0.0.1</div></td></tr></table></div></td></tr><tr><td style="font-weight:bold;vertical-align:top;">path_info</td><td style="vertical-align:top;">:</td><td><div>/Bidding_Portal/default/productpage/14</div></td></tr><tr><td style="font-weight:bold;vertical-align:top;">query_string</td><td style="vertical-align:top;">:</td><td><div></div></td></tr><tr><td style="font-weight:bold;vertical-align:top;">remote_addr</td><td style="vertical-align:top;">:</td><td><div>127.0.0.1</div></td></tr><tr><td style="font-weight:bold;vertical-align:top;">remote_port</td><td style="vertical-align:top;">:</td><td><div>2046</div></td></tr><tr><td style="font-weight:bold;vertical-align:top;">request_method</td><td style="vertical-align:top;">:</td><td><div>GET</div></td></tr><tr><td style="font-weight:bold;vertical-align:top;">request_uri</td><td style="vertical-align:top;">:</td><td><div>/Bidding_Portal/default/productpage/14</div></td></tr><tr><td style="font-weight:bold;vertical-align:top;">script_name</td><td style="vertical-align:top;">:</td><td><div></div></td></tr><tr><td style="font-weight:bold;vertical-align:top;">server_name</td><td style="vertical-align:top;">:</td><td><div>akatsuki</div></td></tr><tr><td style="font-weight:bold;vertical-align:top;">server_port</td><td style="vertical-align:top;">:</td><td><div>8000</div></td></tr><tr><td style="font-weight:bold;vertical-align:top;">server_protocol</td><td style="vertical-align:top;">:</td><td><div>HTTP/1.1</div></td></tr><tr><td style="font-weight:bold;vertical-align:top;">server_software</td><td style="vertical-align:top;">:</td><td><div>Rocket 1.2.6</div></td></tr><tr><td style="font-weight:bold;vertical-align:top;">web2py_path</td><td style="vertical-align:top;">:</td><td><div>E:\\windows_web2py\\web2py_win\\web2py</div></td></tr><tr><td style="font-weight:bold;vertical-align:top;">web2py_version</td><td style="vertical-align:top;">:</td><td><div>2.10.3-stable+timestamp.2015.04.02.21.42.07</div></td></tr><tr><td style="font-weight:bold;vertical-align:top;">wsgi.errors</td><td style="vertical-align:top;">:</td><td><div>&lt;open file &#x27;&lt;stderr&gt;&#x27;, mode &#x27;w&#x27; at 0x0046D0D0&gt;</div></td></tr><tr><td style="font-weight:bold;vertical-align:top;">wsgi.file_wrapper</td><td style="vertical-align:top;">:</td><td><div>&lt;class wsgiref.util.FileWrapper at 0x02A2DBC8&gt;</div></td></tr><tr><td style="font-weight:bold;vertical-align:top;">wsgi.input</td><td style="vertical-align:top;">:</td><td><div>&lt;socket._fileobject object at 0x071CB4B0&gt;</div></td></tr><tr><td style="font-weight:bold;vertical-align:top;">wsgi.multiprocess</td><td style="vertical-align:top;">:</td><td><div>False</div></td></tr><tr><td style="font-weight:bold;vertical-align:top;">wsgi.multithread</td><td style="vertical-align:top;">:</td><td><div>True</div></td></tr><tr><td style="font-weight:bold;vertical-align:top;">wsgi.run_once</td><td style="vertical-align:top;">:</td><td><div>False</div></td></tr><tr><td style="font-weight:bold;vertical-align:top;">wsgi.url_scheme</td><td style="vertical-align:top;">:</td><td><div>http</div></td></tr><tr><td style="font-weight:bold;vertical-align:top;">wsgi.version</td><td style="vertical-align:top;">:</td><td><div><table><tr><td><div>1</div></td></tr><tr><td><div>0</div></td></tr></table></div></td></tr><tr><td style="font-weight:bold;vertical-align:top;">wsgi_errors</td><td style="vertical-align:top;">:</td><td><div>&lt;open file &#x27;&lt;stderr&gt;&#x27;, mode &#x27;w&#x27; at 0x0046D0D0&gt;</div></td></tr><tr><td style="font-weight:bold;vertical-align:top;">wsgi_file_wrapper</td><td style="vertical-align:top;">:</td><td><div>&lt;class wsgiref.util.FileWrapper at 0x02A2DBC8&gt;</div></td></tr><tr><td style="font-weight:bold;vertical-align:top;">wsgi_input</td><td style="vertical-align:top;">:</td><td><div>&lt;socket._fileobject object at 0x071CB4B0&gt;</div></td></tr><tr><td style="font-weight:bold;vertical-align:top;">wsgi_multiprocess</td><td style="vertical-align:top;">:</td><td><div>False</div></td></tr><tr><td style="font-weight:bold;vertical-align:top;">wsgi_multithread</td><td style="vertical-align:top;">:</td><td><div>True</div></td></tr><tr><td style="font-weight:bold;vertical-align:top;">wsgi_run_once</td><td style="vertical-align:top;">:</td><td><div>False</div></td></tr><tr><td style="font-weight:bold;vertical-align:top;">wsgi_url_scheme</td><td style="vertical-align:top;">:</td><td><div>http</div></td></tr><tr><td style="font-weight:bold;vertical-align:top;">wsgi_version</td><td style="vertical-align:top;">:</td><td><div><table><tr><td><div>1</div></td></tr><tr><td><div>0</div></td></tr></table></div></td></tr></table></div></td></tr><tr><td style="font-weight:bold;vertical-align:top;">extension</td><td style="vertical-align:top;">:</td><td><div>html</div></td></tr><tr><td style="font-weight:bold;vertical-align:top;">folder</td><td style="vertical-align:top;">:</td><td><div>E:\\windows_web2py\\web2py_win\\web2py\\applications\\Bidding_Portal\\</div></td></tr><tr><td style="font-weight:bold;vertical-align:top;">function</td><td style="vertical-align:top;">:</td><td><div>productpage</div></td></tr><tr><td style="font-weight:bold;vertical-align:top;">global_settings</td><td style="vertical-align:top;">:</td><td><div><table><tr><td style="font-weight:bold;vertical-align:top;">app_folders</td><td style="vertical-align:top;">:</td><td><div>set([&#x27;E:\\\\windows_web2py\\\\web2py_win\\\\web2py\\\\applications\\\\admin\\\\&#x27;, &#x27;E:\\\\windows_web2py\\\\web2py_win\\\\web2py\\\\applications\\\\ajax_example\\\\&#x27;, &#x27;E:\\\\windows_web2py\\\\web2py_win\\\\web2py\\\\applications\\\\Bidding_Portal\\\\&#x27;, &#x27;E:\\\\windows_web2py\\\\web2py_win\\\\web2py\\\\applications\\\\welcome\\\\&#x27;, &#x27;E:\\\\windows_web2py\\\\web2py_win\\\\web2py\\\\applications\\\\autorefresh\\\\&#x27;])</div></td></tr><tr><td style="font-weight:bold;vertical-align:top;">applications_parent</td><td style="vertical-align:top;">:</td><td><div>E:\\windows_web2py\\web2py_win\\web2py</div></td></tr><tr><td style="font-weight:bold;vertical-align:top;">cmd_args</td><td style="vertical-align:top;">:</td><td><div><table></table></div></td></tr><tr><td style="font-weight:bold;vertical-align:top;">cmd_options</td><td style="vertical-align:top;">:</td><td><div>&lt;Values at 0x287d710: {&#x27;verbose&#x27;: False, &#x27;ip&#x27;: &#x27;127.0.0.1&#x27;, &#x27;debuglevel&#x27;: 30, &#x27;with_scheduler&#x27;: False, &#x27;ips&#x27;: [&#x27;fe80::248b:3a17:3f57:d4f5%10&#x27;, &#x27;2001:0:5ef5:79fb:248b:3a17:3f57:d4f5&#x27;, &#x27;fe80::a9e1:24b0:fe18:a8e1%3&#x27;, &#x27;192.168.43.10&#x27;], &#x27;shutdown_timeout&#x27;: 5, &#x27;taskbar&#x27;: False, &#x27;with_coverage&#x27;: False, &#x27;scheduler_groups&#x27;: None, &#x27;port&#x27;: 8000, &#x27;maxthreads&#x27;: None, &#x27;softcron&#x27;: False, &#x27;server_name&#x27;: &#x27;akatsuki&#x27;, &#x27;bpython&#x27;: False, &#x27;nogui&#x27;: False, &#x27;pid_filename&#x27;: &#x27;httpserver.pid&#x27;, &#x27;print_errors&#x27;: False, &#x27;extcron&#x27;: False, &#x27;runcron&#x27;: False, &#x27;run_system_tests&#x27;: False, &#x27;test&#x27;: None, &#x27;folder&#x27;: &#x27;E:\\\\windows_web2py\\\\web2py_win\\\\web2py&#x27;, &#x27;config&#x27;: &#x27;&#x27;, &#x27;minthreads&#x27;: None, &#x27;shell&#x27;: None, &#x27;run&#x27;: &#x27;&#x27;, &#x27;log_filename&#x27;: &#x27;httpserver.log&#x27;, &#x27;profiler_dir&#x27;: None, &#x27;args&#x27;: [&#x27;&#x27;], &#x27;socket_timeout&#x27;: 5, &#x27;ssl_ca_certificate&#x27;: None, &#x27;scheduler&#x27;: None, &#x27;interfaces&#x27;: None, &#x27;ssl_private_key&#x27;: &#x27;&#x27;, &#x27;gae&#x27;: None, &#x27;password&#x27;: &#x27;&lt;ask&gt;&#x27;, &#x27;request_queue_size&#x27;: 5, &#x27;ssl_certificate&#x27;: &#x27;&#x27;, &#x27;cronjob&#x27;: False, &#x27;numthreads&#x27;: None, &#x27;quiet&#x27;: False, &#x27;import_models&#x27;: False, &#x27;timeout&#x27;: 10, &#x27;plain&#x27;: False, &#x27;nobanner&#x27;: False}&gt;</div></td></tr><tr><td style="font-weight:bold;vertical-align:top;">db_sessions</td><td style="vertical-align:top;">:</td><td><div>set([])</div></td></tr><tr><td style="font-weight:bold;vertical-align:top;">debugging</td><td style="vertical-align:top;">:</td><td><div>True</div></td></tr><tr><td style="font-weight:bold;vertical-align:top;">gluon_parent</td><td style="vertical-align:top;">:</td><td><div>E:\\windows_web2py\\web2py_win\\web2py</div></td></tr><tr><td style="font-weight:bold;vertical-align:top;">is_jython</td><td style="vertical-align:top;">:</td><td><div>False</div></td></tr><tr><td style="font-weight:bold;vertical-align:top;">is_pypy</td><td style="vertical-align:top;">:</td><td><div>False</div></td></tr><tr><td style="font-weight:bold;vertical-align:top;">is_source</td><td style="vertical-align:top;">:</td><td><div>False</div></td></tr><tr><td style="font-weight:bold;vertical-align:top;">local_hosts</td><td style="vertical-align:top;">:</td><td><div><table><tr><td><div>akatsuki</div></td></tr><tr><td><div>fe80::a9e1:24b0:fe18:a8e1%3</div></td></tr><tr><td><div>fe80::248b:3a17:3f57:d4f5%10</div></td></tr><tr><td><div>2001:0:5ef5:79fb:248b:3a17:3f57:d4f5</div></td></tr><tr><td><div>::ffff:127.0.0.1</div></td></tr><tr><td><div>::1</div></td></tr><tr><td><div>192.168.43.10</div></td></tr><tr><td><div>127.0.0.1</div></td></tr></table></div></td></tr><tr><td style="font-weight:bold;vertical-align:top;">web2py_version</td><td style="vertical-align:top;">:</td><td><div>2.10.3-stable+timestamp.2015.04.02.21.42.07</div></td></tr></table></div></td></tr><tr><td style="font-weight:bold;vertical-align:top;">is_https</td><td style="vertical-align:top;">:</td><td><div>False</div></td></tr><tr><td style="font-weight:bold;vertical-align:top;">is_local</td><td style="vertical-align:top;">:</td><td><div>True</div></td></tr><tr><td style="font-weight:bold;vertical-align:top;">is_restful</td><td style="vertical-align:top;">:</td><td><div>False</div></td></tr><tr><td style="font-weight:bold;vertical-align:top;">is_sheduler</td><td style="vertical-align:top;">:</td><td><div>None</div></td></tr><tr><td style="font-weight:bold;vertical-align:top;">is_shell</td><td style="vertical-align:top;">:</td><td><div>None</div></td></tr><tr><td style="font-weight:bold;vertical-align:top;">now</td><td style="vertical-align:top;">:</td><td><div>datetime.datetime(2015, 5, 2, 15, 59, 6, 510000)</div></td></tr><tr><td style="font-weight:bold;vertical-align:top;">raw_args</td><td style="vertical-align:top;">:</td><td><div>14</div></td></tr><tr><td style="font-weight:bold;vertical-align:top;">raw_extension</td><td style="vertical-align:top;">:</td><td><div>None</div></td></tr><tr><td style="font-weight:bold;vertical-align:top;">url</td><td style="vertical-align:top;">:</td><td><div>/Bidding_Portal/default/productpage/14</div></td></tr><tr><td style="font-weight:bold;vertical-align:top;">utcnow</td><td style="vertical-align:top;">:</td><td><div>datetime.datetime(2015, 5, 2, 10, 29, 6, 510000)</div></td></tr><tr><td style="font-weight:bold;vertical-align:top;">uuid</td><td style="vertical-align:top;">:</td><td><div>Bidding_Portal/127.0.0.1.2015-05-02.15-59-06.b39b9f26-a1ed-47fb-b1cd-925a8ceb0c35</div></td></tr><tr><td style="font-weight:bold;vertical-align:top;">wsgi</td><td style="vertical-align:top;">:</td><td><div>&lt;gluon.main.LazyWSGI object at 0x082E3670&gt;</div></td></tr></table></div>'
tRp58
sS'frames'
p59
(lp60
(dp61
S'file'
p62
S'E:\\windows_web2py\\web2py_win\\web2py\\gluon\\restricted.py'
p63
sS'dump'
p64
(dp65
S'environment'
p66
S"{'A': <class 'gluon.html.A'>, 'ANY_OF': <class 'gluon.validators.ANY_OF'>, 'ASSIGNJS': <function ASSIGNJS>, 'Auth': <class 'gluon.tools.Auth'>, 'B': <class 'gluon.html.B'>, 'BEAUTIFY': <class 'gluon.html.BEAUTIFY'>, 'BODY': <class 'gluon.html.BODY'>, 'BR': <class 'gluon.html.BR'>, 'BUTTON': <class 'gluon.html.BUTTON'>, 'CAT': <class 'gluon.html.CAT'>, ...}"
p67
sS'ccode'
p68
S'<code object <module> at 07EF22A8, file "E:\\wind...g_Portal\\views\\default/productpage.html", line 1>'
p69
ssS'lnum'
p70
I227
sS'lines'
p71
(dp72
I224
S'            ccode = code'
p73
sI225
S'        else:'
p74
sI226
S'            ccode = compile2(code, layer)'
p75
sI227
S'        exec ccode in environment'
p76
sI228
S'    except HTTP:'
p77
sI229
S'        raise'
p78
sI230
S'    except RestrictedError:'
p79
sI231
S'        # do not encapsulate (obfuscate) the original RestrictedError'
p80
sI222
S'    try:'
p81
sI223
S'        if isinstance(code, types.CodeType):'
p82
ssS'call'
p83
S'(code=\'response.write(\\\'<!DOCTYPE html>\\\\r\\\\n<html lang="e...     \\\\r\\\\n\\\\t</body>\\\\r\\\\n</html>\\\\r\\\\n\\\', escape=False)\', environment={\'A\': <class \'gluon.html.A\'>, \'ANY_OF\': <class \'gluon.validators.ANY_OF\'>, \'ASSIGNJS\': <function ASSIGNJS>, \'Auth\': <class \'gluon.tools.Auth\'>, \'B\': <class \'gluon.html.B\'>, \'BEAUTIFY\': <class \'gluon.html.BEAUTIFY\'>, \'BODY\': <class \'gluon.html.BODY\'>, \'BR\': <class \'gluon.html.BR\'>, \'BUTTON\': <class \'gluon.html.BUTTON\'>, \'CAT\': <class \'gluon.html.CAT\'>, ...}, layer=r\'E:\\windows_web2py\\web2py_win\\web2py\\applications\\Bidding_Portal\\views\\default/productpage.html\')'
p84
sS'func'
p85
S'restricted'
p86
sa(dp87
g62
S'E:\\windows_web2py\\web2py_win\\web2py\\applications\\Bidding_Portal\\views\\default\\productpage.html'
p88
sg64
(dp89
sg70
I126
sg71
(dp90
I128
S'        prod_id=oneproduct.id'
p91
sI129
S"        response.write('\\r\\n                Highest Bid : \\xe2\\x82\\xb9 ', escape=False)"
p92
sI130
S'        response.write(LOAD(\'single_auto_refresh\',\'ref_func_bid_value.load\',args=[prod_id],ajax=True,timeout=5000, times="infinity"))'
p93
sI131
S"        response.write('\\r\\n            </h4>\\r\\n        </td>\\r\\n        ', escape=False)"
p94
sI132
S'        pass'
p95
sI133
S"    response.write('\\r\\n            \\r\\n    </tr>\\r\\n', escape=False)"
p96
sI134
S'    pass'
p97
sI135
S"response.write('\\r\\n    </table>\\r\\n<br />\\r\\n\\r\\n  ', escape=False)"
p98
sI136
S'response.write(form2)'
p99
sI117
S"        response.write('\\r\\n        <td><h4>\\r\\n            No bids yet....\\r\\n            </h4></td>\\r\\n        ', escape=False)"
p100
sI118
S'        pass'
p101
sI119
S"    response.write('\\r\\n       ', escape=False)"
p102
sI120
S"    if oneproduct.current_highest_bidder != 'none' :"
p103
sI121
S"        response.write('\\r\\n        <td>\\r\\n            ', escape=False)"
p104
sI122
S'        name = db(db.auth_user.id==oneproduct.current_highest_bidder).select()'
p105
sI123
S"        response.write('\\r\\n            ', escape=False)"
p106
sI124
S'        name2=name[0]'
p107
sI125
S"        response.write('\\r\\n            <h4>\\r\\n                Highest Bidder : ', escape=False)"
p108
sI126
S'        response.write(LOAD(\'single_auto_refresh\',\'ref_func_name_details.load\',args=[prod_id],ajax=True,timeout=5000, times="infinity"))'
p109
sI127
S"        response.write('\\r\\n            </h4>\\r\\n        </td>\\r\\n        <td>\\r\\n            <h4>\\r\\n                ', escape=False)"
p110
ssg83
S'()'
p111
sg85
S'<module>'
p112
sasS'pyver'
p113
S'Python 2.7.9: E:\\windows_web2py\\web2py_win\\web2py\\web2py.exe (prefix: )'
p114
sS'session'
p115
g57
(S's\x01\n\x00\x00<div><table><tr><td style="font-weight:bold;vertical-align:top;">auth</td><td style="vertical-align:top;">:</td><td><div><table><tr><td style="font-weight:bold;vertical-align:top;">expiration</td><td style="vertical-align:top;">:</td><td><div>3600</div></td></tr><tr><td style="font-weight:bold;vertical-align:top;">hmac_key</td><td style="vertical-align:top;">:</td><td><div>07ebea89-b0ef-47bb-ab44-696940e85bce</div></td></tr><tr><td style="font-weight:bold;vertical-align:top;">last_visit</td><td style="vertical-align:top;">:</td><td><div>datetime.datetime(2015, 5, 2, 15, 58, 24, 76000)</div></td></tr><tr><td style="font-weight:bold;vertical-align:top;">remember_me</td><td style="vertical-align:top;">:</td><td><div>False</div></td></tr><tr><td style="font-weight:bold;vertical-align:top;">user</td><td style="vertical-align:top;">:</td><td><div><table><tr><td style="font-weight:bold;vertical-align:top;">email</td><td style="vertical-align:top;">:</td><td><div>xyz@gmail.com</div></td></tr><tr><td style="font-weight:bold;vertical-align:top;">first_name</td><td style="vertical-align:top;">:</td><td><div>xyz</div></td></tr><tr><td style="font-weight:bold;vertical-align:top;">id</td><td style="vertical-align:top;">:</td><td><div>1L</div></td></tr><tr><td style="font-weight:bold;vertical-align:top;">last_name</td><td style="vertical-align:top;">:</td><td><div>xyz</div></td></tr><tr><td style="font-weight:bold;vertical-align:top;">registration_id</td><td style="vertical-align:top;">:</td><td><div></div></td></tr><tr><td style="font-weight:bold;vertical-align:top;">registration_key</td><td style="vertical-align:top;">:</td><td><div></div></td></tr><tr><td style="font-weight:bold;vertical-align:top;">reset_password_key</td><td style="vertical-align:top;">:</td><td><div></div></td></tr></table></div></td></tr><tr><td style="font-weight:bold;vertical-align:top;">user_groups</td><td style="vertical-align:top;">:</td><td><div><table><tr><td style="font-weight:bold;vertical-align:top;">1</td><td style="vertical-align:top;">:</td><td><div>user_1</div></td></tr></table></div></td></tr></table></div></td></tr><tr><td style="font-weight:bold;vertical-align:top;">flash</td><td style="vertical-align:top;">:</td><td><div>None</div></td></tr><tr><td style="font-weight:bold;vertical-align:top;">last_orderby</td><td style="vertical-align:top;">:</td><td><div>None</div></td></tr><tr><td style="font-weight:bold;vertical-align:top;">last_query</td><td style="vertical-align:top;">:</td><td><div>db.product_list.id&gt;0</div></td></tr></table></div>'
tRp116
sS'etype'
p117
S"<type 'exceptions.NameError'>"
p118
sS'date'
p119
S'Sat May 02 15:59:06 2015'
p120
sS'response'
p121
g57
(S's\xde6\x00\x00<div><table><tr><td style="font-weight:bold;vertical-align:top;">body</td><td style="vertical-align:top;">:</td><td><div>&lt;cStringIO.StringO object at 0x079AA640&gt;</div></td></tr><tr><td style="font-weight:bold;vertical-align:top;">cookies</td><td style="vertical-align:top;">:</td><td><div><table><tr><td style="font-weight:bold;vertical-align:top;">session_id_bidding_portal</td><td style="vertical-align:top;">:</td><td><div>127.0.0.1-89382f9c-381e-4a6e-950e-a301ca52f706<table><tr><td style="font-weight:bold;vertical-align:top;">comment</td><td style="vertical-align:top;">:</td><td><div></div></td></tr><tr><td style="font-weight:bold;vertical-align:top;">domain</td><td style="vertical-align:top;">:</td><td><div></div></td></tr><tr><td style="font-weight:bold;vertical-align:top;">expires</td><td style="vertical-align:top;">:</td><td><div></div></td></tr><tr><td style="font-weight:bold;vertical-align:top;">httponly</td><td style="vertical-align:top;">:</td><td><div></div></td></tr><tr><td style="font-weight:bold;vertical-align:top;">max-age</td><td style="vertical-align:top;">:</td><td><div></div></td></tr><tr><td style="font-weight:bold;vertical-align:top;">path</td><td style="vertical-align:top;">:</td><td><div>/</div></td></tr><tr><td style="font-weight:bold;vertical-align:top;">secure</td><td style="vertical-align:top;">:</td><td><div></div></td></tr><tr><td style="font-weight:bold;vertical-align:top;">version</td><td style="vertical-align:top;">:</td><td><div></div></td></tr></table></div></td></tr></table></div></td></tr><tr><td style="font-weight:bold;vertical-align:top;">delimiters</td><td style="vertical-align:top;">:</td><td><div><table><tr><td><div>{{</div></td></tr><tr><td><div>}}</div></td></tr></table></div></td></tr><tr><td style="font-weight:bold;vertical-align:top;">files</td><td style="vertical-align:top;">:</td><td><div><table><tr><td><div>/Bidding_Portal/static/js/jquery.js</div></td></tr><tr><td><div>/Bidding_Portal/static/css/calendar.css</div></td></tr><tr><td><div>/Bidding_Portal/static/js/calendar.js</div></td></tr><tr><td><div>/Bidding_Portal/static/js/web2py.js</div></td></tr></table></div></td></tr><tr><td style="font-weight:bold;vertical-align:top;">flash</td><td style="vertical-align:top;">:</td><td><div></div></td></tr><tr><td style="font-weight:bold;vertical-align:top;">form_label_separator</td><td style="vertical-align:top;">:</td><td><div>: </div></td></tr><tr><td style="font-weight:bold;vertical-align:top;">formstyle</td><td style="vertical-align:top;">:</td><td><div>table3cols</div></td></tr><tr><td style="font-weight:bold;vertical-align:top;">generic_patterns</td><td style="vertical-align:top;">:</td><td><div><table><tr><td><div>*</div></td></tr></table></div></td></tr><tr><td style="font-weight:bold;vertical-align:top;">google_analytics_id</td><td style="vertical-align:top;">:</td><td><div>None</div></td></tr><tr><td style="font-weight:bold;vertical-align:top;">headers</td><td style="vertical-align:top;">:</td><td><div><table><tr><td style="font-weight:bold;vertical-align:top;">X-Powered-By</td><td style="vertical-align:top;">:</td><td><div>web2py</div></td></tr></table></div></td></tr><tr><td style="font-weight:bold;vertical-align:top;">logo</td><td style="vertical-align:top;">:</td><td><div><a class="brand" href="http://www.iiit.ac.in/"><b><span>IIIT-H</span></b>&trade;&nbsp;</a></div></td></tr><tr><td style="font-weight:bold;vertical-align:top;">menu</td><td style="vertical-align:top;">:</td><td><div><table><tr><td><div><table><tr><td><div>Home</div></td></tr><tr><td><div>False</div></td></tr><tr><td><div>/Bidding_Portal/default/index</div></td></tr><tr><td><div><table></table></div></td></tr></table></div></td></tr><tr><td><div><table><tr><td><div>Sell</div></td></tr><tr><td><div>False</div></td></tr><tr><td><div>/Bidding_Portal/default/sell</div></td></tr><tr><td><div><table></table></div></td></tr></table></div></td></tr><tr><td><div><table><tr><td><div>Manage</div></td></tr><tr><td><div>False</div></td></tr><tr><td><div>/Bidding_Portal/default/manage</div></td></tr><tr><td><div><table></table></div></td></tr></table></div></td></tr><tr><td><div><table><tr><td><div>My uploaded items</div></td></tr><tr><td><div>False</div></td></tr><tr><td><div>/Bidding_Portal/default/myuploadeditems</div></td></tr><tr><td><div><table></table></div></td></tr></table></div></td></tr><tr><td><div><table><tr><td><div><span class="highlighted">web2py</span></div></td></tr><tr><td><div>False</div></td></tr><tr><td><div>http://web2py.com</div></td></tr><tr><td><div><table><tr><td><div><table><tr><td><div>My Sites</div></td></tr><tr><td><div>False</div></td></tr><tr><td><div>/admin/default/site</div></td></tr></table></div></td></tr><tr><td><div><table><tr><td><div>This App</div></td></tr><tr><td><div>False</div></td></tr><tr><td><div>/admin/default/design/Bidding_Portal</div></td></tr><tr><td><div>[(&lt;lazyT &#x27;Controller&#x27;&gt;, False, &#x27;/admin/default/edit/Bidding_Portal/controllers/default.py&#x27;), (&lt;lazyT &#x27;View&#x27;&gt;, False, &#x27;/admin/default/edit/Bidding_Portal/views/default/productpage.html&#x27;), (&lt;lazyT &#x27;Layout&#x27;&gt;, False, &#x27;/admin/default/edit/Bidding_Portal/views/layout.html&#x27;), (&lt;lazyT &#x27;Stylesheet&#x27;&gt;, False, &#x27;/admin/default/edit/Bidding_Portal/static/css/web2py.css&#x27;), (&lt;lazyT &#x27;DB Model&#x27;&gt;, False, &#x27;/admin/default/edit/Bidding_Portal/models/db.py&#x27;), (&lt;lazyT &#x27;Menu Model&#x27;&gt;, False, &#x27;/admin/default/edit/Bidding_Portal/models/menu.py&#x27;), (&lt;lazyT &#x27;Database&#x27;&gt;, False, &#x27;/Bidding_Portal/appadmin/index&#x27;), (&lt;lazyT &#x27;Errors&#x27;&gt;, False, &#x27;/admin/default/errors/Bidding_Portal&#x27;), (&lt;lazyT &#x27;About&#x27;&gt;, False, &#x27;/admin/default/about/Bidding_Portal&#x27;)]</div></td></tr></table></div></td></tr><tr><td><div><table><tr><td><div>web2py.com</div></td></tr><tr><td><div>False</div></td></tr><tr><td><div>http://www.web2py.com</div></td></tr><tr><td><div>[(&lt;lazyT &#x27;Download&#x27;&gt;, False, &#x27;http://www.web2py.com/examples/default/download&#x27;), (&lt;lazyT &#x27;Support&#x27;&gt;, False, &#x27;http://www.web2py.com/examples/default/support&#x27;), (&lt;lazyT &#x27;Demo&#x27;&gt;, False, &#x27;http://web2py.com/demo_admin&#x27;), (&lt;lazyT &#x27;Quick Examples&#x27;&gt;, False, &#x27;http://web2py.com/examples/default/examples&#x27;), (&lt;lazyT &#x27;FAQ&#x27;&gt;, False, &#x27;http://web2py.com/AlterEgo&#x27;), (&lt;lazyT &#x27;Videos&#x27;&gt;, False, &#x27;http://www.web2py.com/examples/default/videos/&#x27;), (&lt;lazyT &#x27;Free Applications&#x27;&gt;, False, &#x27;http://web2py.com/appliances&#x27;), (&lt;lazyT &#x27;Plugins&#x27;&gt;, False, &#x27;http://web2py.com/plugins&#x27;), (&lt;lazyT &#x27;Layouts&#x27;&gt;, False, &#x27;http://web2py.com/layouts&#x27;), (&lt;lazyT &#x27;Recipes&#x27;&gt;, False, &#x27;http://web2pyslices.com/&#x27;), (&lt;lazyT &#x27;Semantic&#x27;&gt;, False, &#x27;http://web2py.com/semantic&#x27;)]</div></td></tr></table></div></td></tr><tr><td><div><table><tr><td><div>Documentation</div></td></tr><tr><td><div>False</div></td></tr><tr><td><div>http://www.web2py.com/book</div></td></tr><tr><td><div>[(&lt;lazyT &#x27;Preface&#x27;&gt;, False, &#x27;http://www.web2py.com/book/default/chapter/00&#x27;), (&lt;lazyT &#x27;Introduction&#x27;&gt;, False, &#x27;http://www.web2py.com/book/default/chapter/01&#x27;), (&lt;lazyT &#x27;Python&#x27;&gt;, False, &#x27;http://www.web2py.com/book/default/chapter/02&#x27;), (&lt;lazyT &#x27;Overview&#x27;&gt;, False, &#x27;http://www.web2py.com/book/default/chapter/03&#x27;), (&lt;lazyT &#x27;The Core&#x27;&gt;, False, &#x27;http://www.web2py.com/book/default/chapter/04&#x27;), (&lt;lazyT &#x27;The Views&#x27;&gt;, False, &#x27;http://www.web2py.com/book/default/chapter/05&#x27;), (&lt;lazyT &#x27;Database&#x27;&gt;, False, &#x27;http://www.web2py.com/book/default/chapter/06&#x27;), (&lt;lazyT &#x27;Forms and Validators&#x27;&gt;, False, &#x27;http://www.web2py.com/book/default/chapter/07&#x27;), (&lt;lazyT &#x27;Email and SMS&#x27;&gt;, False, &#x27;http://www.web2py.com/book/default/chapter/08&#x27;), (&lt;lazyT &#x27;Access Control&#x27;&gt;, False, &#x27;http://www.web2py.com/book/default/chapter/09&#x27;), (&lt;lazyT &#x27;Services&#x27;&gt;, False, &#x27;http://www.web2py.com/book/default/chapter/10&#x27;), (&lt;lazyT &#x27;Ajax Recipes&#x27;&gt;, False, &#x27;http://www.web2py.com/book/default/chapter/11&#x27;), (&lt;lazyT &#x27;Components and Plugins&#x27;&gt;, False, &#x27;http://www.web2py.com/book/default/chapter/12&#x27;), (&lt;lazyT &#x27;Deployment Recipes&#x27;&gt;, False, &#x27;http://www.web2py.com/book/default/chapter/13&#x27;), (&lt;lazyT &#x27;Other Recipes&#x27;&gt;, False, &#x27;http://www.web2py.com/book/default/chapter/14&#x27;), (&lt;lazyT &#x27;Buy this book&#x27;&gt;, False, &#x27;http://stores.lulu.com/web2py&#x27;)]</div></td></tr></table></div></td></tr><tr><td><div><table><tr><td><div>Community</div></td></tr><tr><td><div>False</div></td></tr><tr><td><div>None</div></td></tr><tr><td><div>[(&lt;lazyT &#x27;Groups&#x27;&gt;, False, &#x27;http://www.web2py.com/examples/default/usergroups&#x27;), (&lt;lazyT &#x27;Twitter&#x27;&gt;, False, &#x27;http://twitter.com/web2py&#x27;), (&lt;lazyT &#x27;Live Chat&#x27;&gt;, False, &#x27;http://webchat.freenode.net/?channels=web2py&#x27;)]</div></td></tr></table></div></td></tr><tr><td><div><table><tr><td><div>Plugins</div></td></tr><tr><td><div>False</div></td></tr><tr><td><div>None</div></td></tr><tr><td><div>[(&#x27;plugin_wiki&#x27;, False, &#x27;http://web2py.com/examples/default/download&#x27;), (&lt;lazyT &#x27;Other Plugins&#x27;&gt;, False, &#x27;http://web2py.com/plugins&#x27;), (&lt;lazyT &#x27;Layout Plugins&#x27;&gt;, False, &#x27;http://web2py.com/layouts&#x27;)]</div></td></tr></table></div></td></tr></table></div></td></tr></table></div></td></tr></table></div></td></tr><tr><td style="font-weight:bold;vertical-align:top;">meta</td><td style="vertical-align:top;">:</td><td><div><table><tr><td style="font-weight:bold;vertical-align:top;">author</td><td style="vertical-align:top;">:</td><td><div>Your Name &lt;you@example.com&gt;</div></td></tr><tr><td style="font-weight:bold;vertical-align:top;">generator</td><td style="vertical-align:top;">:</td><td><div>Web2py Web Framework</div></td></tr><tr><td style="font-weight:bold;vertical-align:top;">keywords</td><td style="vertical-align:top;">:</td><td><div>web2py, python, framework</div></td></tr></table></div></td></tr><tr><td style="font-weight:bold;vertical-align:top;">models_to_run</td><td style="vertical-align:top;">:</td><td><div><table><tr><td><div>^\\w+\\.py$</div></td></tr><tr><td><div>^default/\\w+\\.py$</div></td></tr><tr><td><div>^default/productpage/\\w+\\.py$</div></td></tr></table></div></td></tr><tr><td style="font-weight:bold;vertical-align:top;">postprocessing</td><td style="vertical-align:top;">:</td><td><div><table></table></div></td></tr><tr><td style="font-weight:bold;vertical-align:top;">session_client</td><td style="vertical-align:top;">:</td><td><div>127.0.0.1</div></td></tr><tr><td style="font-weight:bold;vertical-align:top;">session_cookie_compression_level</td><td style="vertical-align:top;">:</td><td><div>None</div></td></tr><tr><td style="font-weight:bold;vertical-align:top;">session_cookie_expires</td><td style="vertical-align:top;">:</td><td><div>None</div></td></tr><tr><td style="font-weight:bold;vertical-align:top;">session_cookie_key</td><td style="vertical-align:top;">:</td><td><div>None</div></td></tr><tr><td style="font-weight:bold;vertical-align:top;">session_data_name</td><td style="vertical-align:top;">:</td><td><div>session_data_bidding_portal</div></td></tr><tr><td style="font-weight:bold;vertical-align:top;">session_file</td><td style="vertical-align:top;">:</td><td><div>&lt;open file &#x27;E:\\\\windows_web2py\\\\web2py_win\\\\web2py\\\\applications\\\\Bidding_Portal\\\\sessions\\\\15d\\\\191\\\\127.0.0.1-89382f9c-381e-4a6e-950e-a301ca52f706&#x27;, mode &#x27;rb+&#x27; at 0x078A4D88&gt;</div></td></tr><tr><td style="font-weight:bold;vertical-align:top;">session_filename</td><td style="vertical-align:top;">:</td><td><div>E:\\windows_web2py\\web2py_win\\web2py\\applications\\Bidding_Portal\\sessions\\127.0.0.1-89382f9c-381e-4a6e-950e-a301ca52f706</div></td></tr><tr><td style="font-weight:bold;vertical-align:top;">session_hash</td><td style="vertical-align:top;">:</td><td><div>0b7eed61c8168b5ac088de4099ba2f5a</div></td></tr><tr><td style="font-weight:bold;vertical-align:top;">session_id</td><td style="vertical-align:top;">:</td><td><div>127.0.0.1-89382f9c-381e-4a6e-950e-a301ca52f706</div></td></tr><tr><td style="font-weight:bold;vertical-align:top;">session_id_name</td><td style="vertical-align:top;">:</td><td><div>session_id_bidding_portal</div></td></tr><tr><td style="font-weight:bold;vertical-align:top;">session_locked</td><td style="vertical-align:top;">:</td><td><div>True</div></td></tr><tr><td style="font-weight:bold;vertical-align:top;">session_masterapp</td><td style="vertical-align:top;">:</td><td><div>Bidding_Portal</div></td></tr><tr><td style="font-weight:bold;vertical-align:top;">session_new</td><td style="vertical-align:top;">:</td><td><div>False</div></td></tr><tr><td style="font-weight:bold;vertical-align:top;">session_storage_type</td><td style="vertical-align:top;">:</td><td><div>file</div></td></tr><tr><td style="font-weight:bold;vertical-align:top;">status</td><td style="vertical-align:top;">:</td><td><div>200</div></td></tr><tr><td style="font-weight:bold;vertical-align:top;">subtitle</td><td style="vertical-align:top;">:</td><td><div></div></td></tr><tr><td style="font-weight:bold;vertical-align:top;">title</td><td style="vertical-align:top;">:</td><td><div>Bidding Portal</div></td></tr><tr><td style="font-weight:bold;vertical-align:top;">view</td><td style="vertical-align:top;">:</td><td><div>default/productpage.html</div></td></tr></table></div>'
tRp122
sS'locals'
p123
(dp124
S'oneproduct'
p125
S"<Row {'last_bid_time': None, 'current_highest_bi...rrent_highest_bidder': '1', 'bid_density': -1.0}>"
p126
sS'Service'
p127
S"<class 'gluon.tools.Service'>"
p128
sS'OBJECT'
p129
S"<class 'gluon.html.OBJECT'>"
p130
sS'SQLDB'
p131
S"<class 'pydal.base.DAL'>"
p132
sg115
S"<Storage {'last_query': 'db.product_list.id>0', ...33faa', '5a6d6400-bf0f-464d-92ac-67711f547b85']}>"
p133
sS'LINK'
p134
S"<class 'gluon.html.LINK'>"
p135
sS'BR'
p136
S"<class 'gluon.html.BR'>"
p137
sS'local_import'
p138
S'<function <lambda>>'
p139
sS'OPTGROUP'
p140
S"<class 'gluon.html.OPTGROUP'>"
p141
sS'__package__'
p142
S'None'
p143
sS'PRE'
p144
S"<class 'gluon.html.PRE'>"
p145
sS'IS_INT_IN_RANGE'
p146
S"<class 'gluon.validators.IS_INT_IN_RANGE'>"
p147
sS'IS_LOWER'
p148
S"<class 'gluon.validators.IS_LOWER'>"
p149
sS'IS_STRONG'
p150
S"<class 'gluon.validators.IS_STRONG'>"
p151
sS'cache'
p152
S'<gluon.cache.Cache object>'
p153
sS'IS_IN_DB'
p154
S"<class 'gluon.validators.IS_IN_DB'>"
p155
sS'TAG'
p156
S'<gluon.html.__TAG__ object>'
p157
sS'SQLField'
p158
S"<class 'pydal.objects.Field'>"
p159
sS'mail'
p160
S'<gluon.tools.Mail object>'
p161
sS'BODY'
p162
S"<class 'gluon.html.BODY'>"
p163
sS'IS_DATE_IN_RANGE'
p164
S"<class 'gluon.validators.IS_DATE_IN_RANGE'>"
p165
sS'IFRAME'
p166
S"<class 'gluon.html.IFRAME'>"
p167
sS'URL'
p168
S'<function URL>'
p169
sS'__file__'
p170
S"r'E:\\windows_web2py\\web2py_win\\web2py\\applications\\Bidding_Portal\\views\\default/productpage.html'"
p171
sS'db'
p172
S'<DAL uri="sqlite://storage.sqlite">'
p173
sS'auth'
p174
S'<gluon.tools.Auth object>'
p175
sS'P'
S"<class 'gluon.html.P'>"
p176
sS'TFOOT'
p177
S"<class 'gluon.html.TFOOT'>"
p178
sS'XHTML'
p179
S"<class 'gluon.html.XHTML'>"
p180
sS'ON'
p181
S'True'
p182
sS'OL'
p183
S"<class 'gluon.html.OL'>"
p184
sS'name'
p185
S'<Rows (1)>'
p186
sS'TEXTAREA'
p187
S"<class 'gluon.html.TEXTAREA'>"
p188
sS'MENU'
p189
S"<class 'gluon.html.MENU'>"
p190
sS'STYLE'
p191
S"<class 'gluon.html.STYLE'>"
p192
sS'form2'
p193
S'<gluon.sqlhtml.SQLFORM object>'
p194
sS'IS_IMAGE'
p195
S"<class 'gluon.validators.IS_IMAGE'>"
p196
sS'EM'
p197
S"<class 'gluon.html.EM'>"
p198
sS'CODE'
p199
S"<class 'gluon.html.CODE'>"
p200
sS'HTTP'
p201
S"<class 'gluon.http.HTTP'>"
p202
sS'HR'
p203
S"<class 'gluon.html.HR'>"
p204
sS'IS_DATETIME'
p205
S"<class 'gluon.validators.IS_DATETIME'>"
p206
sS'product'
p207
S'<Rows (1)>'
p208
sS'LABEL'
p209
S"<class 'gluon.html.LABEL'>"
p210
sS'CLEANUP'
p211
S"<class 'gluon.validators.CLEANUP'>"
p212
sS'plugins'
p213
S'<gluon.tools.PluginManager object>'
p214
sS'SELECT'
p215
S"<class 'gluon.html.SELECT'>"
p216
sS'use_janrain'
p217
S'<function use_janrain>'
p218
sS'CENTER'
p219
S"<class 'gluon.html.CENTER'>"
p220
sS'Auth'
p221
S"<class 'gluon.tools.Auth'>"
p222
sS'DEVELOPMENT_MENU'
p223
g182
sS'__builtins__'
p224
S"{'ArithmeticError': <type 'exceptions.ArithmeticError'>, 'AssertionError': <type 'exceptions.AssertionError'>, 'AttributeError': <type 'exceptions.AttributeError'>, 'BaseException': <type 'exceptions.BaseException'>, 'BufferError': <type 'exceptions.BufferError'>, 'BytesWarning': <type 'exceptions.BytesWarning'>, 'DeprecationWarning': <type 'exceptions.DeprecationWarning'>, 'EOFError': <type 'exceptions.EOFError'>, 'Ellipsis': Ellipsis, 'EnvironmentError': <type 'exceptions.EnvironmentError'>, ...}"
p225
sS'HTML'
p226
S"<class 'gluon.html.HTML'>"
p227
sS'SQLFORM'
p228
S"<class 'gluon.sqlhtml.SQLFORM'>"
p229
sS'LOAD'
p230
S'<function LOAD>'
p231
sS'redirect'
p232
S'<function redirect>'
p233
sS'FIELDSET'
p234
S"<class 'gluon.html.FIELDSET'>"
p235
sS'IS_EQUAL_TO'
p236
S"<class 'gluon.validators.IS_EQUAL_TO'>"
p237
sS'embed64'
p238
S'<function embed64>'
p239
sS'IS_LIST_OF'
p240
S"<class 'gluon.validators.IS_LIST_OF'>"
p241
sS'INPUT'
p242
S"<class 'gluon.html.INPUT'>"
p243
sS'EMBED'
p244
S"<class 'gluon.html.EMBED'>"
p245
sS'_'
S'<function _>'
p246
sS'H2'
p247
S"<class 'gluon.html.H2'>"
p248
sS'H3'
p249
S"<class 'gluon.html.H3'>"
p250
sS'BUTTON'
p251
S"<class 'gluon.html.BUTTON'>"
p252
sS'H1'
p253
S"<class 'gluon.html.H1'>"
p254
sS'H6'
p255
S"<class 'gluon.html.H6'>"
p256
sS'H4'
p257
S"<class 'gluon.html.H4'>"
p258
sS'H5'
p259
S"<class 'gluon.html.H5'>"
p260
sS'UL'
p261
S"<class 'gluon.html.UL'>"
p262
sS'IS_UPPER'
p263
S"<class 'gluon.validators.IS_UPPER'>"
p264
sS'xmlescape'
p265
S'<function xmlescape>'
p266
sS'IS_TIME'
p267
S"<class 'gluon.validators.IS_TIME'>"
p268
sS'OPTION'
p269
S"<class 'gluon.html.OPTION'>"
p270
sS'TITLE'
p271
S"<class 'gluon.html.TITLE'>"
p272
sS'CRYPT'
p273
S"<class 'gluon.validators.CRYPT'>"
p274
sS'IS_EMPTY_OR'
p275
S"<class 'gluon.validators.IS_EMPTY_OR'>"
p276
sS'MARKMIN'
p277
S"<class 'gluon.html.MARKMIN'>"
p278
sS'__name__'
p279
S"'__restricted__'"
p280
sS'STRONG'
p281
S"<class 'gluon.html.STRONG'>"
p282
sS'COL'
p283
S"<class 'gluon.html.COL'>"
p284
sS'service'
p285
S'<gluon.tools.Service object>'
p286
sS'SCRIPT'
p287
S"<class 'gluon.html.SCRIPT'>"
p288
sS'TABLE'
p289
S"<class 'gluon.html.TABLE'>"
p290
sS'IS_IPV4'
p291
S"<class 'gluon.validators.IS_IPV4'>"
p292
sS'IS_LENGTH'
p293
S"<class 'gluon.validators.IS_LENGTH'>"
p294
sS'IS_IPV6'
p295
S"<class 'gluon.validators.IS_IPV6'>"
p296
sS'XML'
p297
S"<class 'gluon.html.XML'>"
p298
sS'B'
S"<class 'gluon.html.B'>"
p299
sS'IMG'
p300
S"<class 'gluon.html.IMG'>"
p301
sS'SQLTABLE'
p302
S"<class 'gluon.sqlhtml.SQLTABLE'>"
p303
sS'IS_MATCH'
p304
S"<class 'gluon.validators.IS_MATCH'>"
p305
sS'IS_ALPHANUMERIC'
p306
S"<class 'gluon.validators.IS_ALPHANUMERIC'>"
p307
sS'name2'
p308
S"<Row {'first_name': 'xyz', 'last_name': 'xyz', '...registration_key': '', 'email': 'xyz@gmail.com'}>"
p309
sS'SPAN'
p310
S"<class 'gluon.html.SPAN'>"
p311
sS'IS_JSON'
p312
S"<class 'gluon.validators.IS_JSON'>"
p313
sS'IS_IPADDRESS'
p314
S"<class 'gluon.validators.IS_IPADDRESS'>"
p315
sS'IS_SLUG'
p316
S"<class 'gluon.validators.IS_SLUG'>"
p317
sS'BEAUTIFY'
p318
S"<class 'gluon.html.BEAUTIFY'>"
p319
sS'META'
p320
S"<class 'gluon.html.META'>"
p321
sS'IS_DATE'
p322
S"<class 'gluon.validators.IS_DATE'>"
p323
sS'IS_EMAIL'
p324
S"<class 'gluon.validators.IS_EMAIL'>"
p325
sS'IS_NOT_EMPTY'
p326
S"<class 'gluon.validators.IS_NOT_EMPTY'>"
p327
sS'IS_FLOAT_IN_RANGE'
p328
S"<class 'gluon.validators.IS_FLOAT_IN_RANGE'>"
p329
sS'TBODY'
p330
S"<class 'gluon.html.TBODY'>"
p331
sS'CAT'
p332
S"<class 'gluon.html.CAT'>"
p333
sS'Field'
p334
S"<class 'pydal.objects.Field'>"
p335
sS'IS_LIST_OF_EMAILS'
p336
S"<class 'gluon.validators.IS_LIST_OF_EMAILS'>"
p337
sS'DIV'
p338
S"<class 'gluon.html.DIV'>"
p339
sS'LEGEND'
p340
S"<class 'gluon.html.LEGEND'>"
p341
sS'COLGROUP'
p342
S"<class 'gluon.html.COLGROUP'>"
p343
sS'DAL'
p344
S"<class 'pydal.base.DAL'>"
p345
sS'ASSIGNJS'
p346
S'<function ASSIGNJS>'
p347
sS'TR'
p348
S"<class 'gluon.html.TR'>"
p349
sS'LI'
p350
S"<class 'gluon.html.LI'>"
p351
sS'arguments'
p352
S"'14'"
p353
sS'TH'
p354
S"<class 'gluon.html.TH'>"
p355
sS'TD'
p356
S"<class 'gluon.html.TD'>"
p357
sS'PluginManager'
p358
S"<class 'gluon.tools.PluginManager'>"
p359
sS'IS_URL'
p360
S"<class 'gluon.validators.IS_URL'>"
p361
sS'A'
S"<class 'gluon.html.A'>"
p362
sS'HEAD'
p363
S"<class 'gluon.html.HEAD'>"
p364
sS'IS_DATETIME_IN_RANGE'
p365
S"<class 'gluon.validators.IS_DATETIME_IN_RANGE'>"
p366
sS'FORM'
p367
S"<class 'gluon.html.FORM'>"
p368
sS'I'
S"<class 'gluon.html.I'>"
p369
sS'IS_NOT_IN_DB'
p370
S"<class 'gluon.validators.IS_NOT_IN_DB'>"
p371
sS'firstproduct'
p372
S"<Row {'last_bid_time': None, 'current_highest_bi...rrent_highest_bidder': '1', 'bid_density': -1.0}>"
p373
sg121
S"<Storage {'body': <cStringIO.StringO object at 0...0x070E27B0>, 'view': 'default/productpage.html'}>"
p374
sS'THEAD'
p375
S"<class 'gluon.html.THEAD'>"
p376
sS'ANY_OF'
p377
S"<class 'gluon.validators.ANY_OF'>"
p378
sS'IS_NULL_OR'
p379
S"<class 'gluon.validators.IS_EMPTY_OR'>"
p380
sg56
S"<Storage {'_vars': None, 'function': 'productpag...py_win\\\\web2py\\\\applications\\\\Bidding_Portal\\\\'}>"
p381
sS'IS_EXPR'
p382
S"<class 'gluon.validators.IS_EXPR'>"
p383
sS'T'
S'<gluon.languages.translator object>'
p384
sS'IS_IN_SET'
p385
S"<class 'gluon.validators.IS_IN_SET'>"
p386
sS'IS_UPLOAD_FILENAME'
p387
S"<class 'gluon.validators.IS_UPLOAD_FILENAME'>"
p388
sS'TT'
p389
S"<class 'gluon.html.TT'>"
p390
sS'IS_DECIMAL_IN_RANGE'
p391
S"<class 'gluon.validators.IS_DECIMAL_IN_RANGE'>"
p392
sssS'traceback'
p393
S'Traceback (most recent call last):\n  File "E:\\windows_web2py\\web2py_win\\web2py\\gluon\\restricted.py", line 227, in restricted\n    exec ccode in environment\n  File "E:\\windows_web2py\\web2py_win\\web2py\\applications\\Bidding_Portal\\views\\default/productpage.html", line 126, in <module>\nNameError: name \'prod_id\' is not defined\n'
p394
s.