(dp1
S'output'
p2
S"<type 'exceptions.ValueError'> invalid literal for long() with base 10: 'URL__download__args=oneproduct.image_no_1_'"
p3
sS'layer'
p4
S'/home/punya/web2py/applications/Bidding_Portal/controllers/default.py'
p5
sS'code'
p6
S'# -*- coding: utf-8 -*-\n# this file is released under public domain and you can use without limitations\n\n#########################################################################\n## This is a sample controller\n## - index is the default action of any application\n## - user is required for authentication and authorization\n## - download is for downloading files uploaded in the db (does streaming)\n## - api is an example of Hypermedia API support and access control\n#########################################################################\n\n@auth.requires_login()\ndef index():\n    response.flash = T("Welcome to web2py!")\n    return dict(message=T(\'Hello World\'))\n\n@auth.requires_login()\ndef sell():\n    form = SQLFORM(db.product_list).process()\n    if form.accepted:\n        session.flash = \'Successfully posted product\'\n        redirect(URL(\'myuploadeditems\'))\n    elif form.errors:\n        response.flash = \'Form has errors.\'\n    else:\n        response.flash = \'As easy as that !!!\'\n    return locals()\n\n@auth.requires_login()\ndef viewposteditems():\n    form = SQLFORM(db.product_list).process()\n    return locals()\n\n\n\ndef manage():\n    grid = SQLFORM.grid(db.product_list)\n    return locals()\n\ndef myuploadeditems():\n    rows = db(db.product_list.created_by==auth.user).select()\n    return locals()\n\ndef productpage():\n    arguments = request.args[0]\n    product = db(db.product_list.id==request.args[0]).select()\n    return locals()\n\n\n\ndef user():\n    """\n    exposes:\n    http://..../[app]/default/user/login\n    http://..../[app]/default/user/logout\n    http://..../[app]/default/user/register\n    http://..../[app]/default/user/profile\n    http://..../[app]/default/user/retrieve_password\n    http://..../[app]/default/user/change_password\n    http://..../[app]/default/user/manage_users (requires membership in\n    use @auth.requires_login()\n        @auth.requires_membership(\'group name\')\n        @auth.requires_permission(\'read\',\'table name\',record_id)\n    to decorate functions that need access control\n    """\n    return dict(form=auth())\n\n\n@cache.action()\ndef download():\n    """\n    allows downloading of uploaded files\n    http://..../[app]/default/download/[filename]\n    """\n    return response.download(request, db)\n\n\ndef call():\n    """\n    exposes services. for example:\n    http://..../[app]/default/call/jsonrpc\n    decorate with @services.jsonrpc the functions to expose\n    supports xml, json, xmlrpc, jsonrpc, amfrpc, rss, csv\n    """\n    return service()\n\n\n@auth.requires_login() \ndef api():\n    """\n    this is example of API with access control\n    WEB2PY provides Hypermedia API (Collection+JSON) Experimental\n    """\n    from gluon.contrib.hypermedia import Collection\n    rules = {\n        \'<tablename>\': {\'GET\':{},\'POST\':{},\'PUT\':{},\'DELETE\':{}},\n        }\n    return Collection(db).process(request,response,rules)\n\nresponse._vars=response._caller(productpage)\n'
p7
sS'snapshot'
p8
(dp9
sS'traceback'
p10
S'Traceback (most recent call last):\n  File "/home/punya/web2py/gluon/restricted.py", line 224, in restricted\n    exec ccode in environment\n  File "/home/punya/web2py/applications/Bidding_Portal/controllers/default.py", line 100, in <module>\n  File "/home/punya/web2py/gluon/globals.py", line 393, in <lambda>\n    self._caller = lambda f: f()\n  File "/home/punya/web2py/applications/Bidding_Portal/controllers/default.py", line 46, in productpage\n    product = db(db.product_list.id==request.args[0]).select()\n  File "/home/punya/web2py/gluon/dal/objects.py", line 2066, in select\n    return adapter.select(self.query,fields,attributes)\n  File "/home/punya/web2py/gluon/dal/adapters/sqlite.py", line 125, in select\n    return super(SQLiteAdapter, self).select(query, fields, attributes)\n  File "/home/punya/web2py/gluon/dal/adapters/base.py", line 1219, in select\n    sql = self._select(query, fields, attributes)\n  File "/home/punya/web2py/gluon/dal/adapters/base.py", line 1117, in _select\n    sql_w = \' WHERE \' + self.expand(query) if query else \'\'\n  File "/home/punya/web2py/gluon/dal/adapters/base.py", line 897, in expand\n    out = op(first, second, **optional_args)\n  File "/home/punya/web2py/gluon/dal/adapters/base.py", line 794, in EQ\n    self.expand(second, first.type))\n  File "/home/punya/web2py/gluon/dal/adapters/base.py", line 908, in expand\n    return str(self.represent(expression,field_type))\n  File "/home/punya/web2py/gluon/dal/adapters/base.py", line 1357, in represent\n    return str(long(obj))\nValueError: invalid literal for long() with base 10: \'URL__download__args=oneproduct.image_no_1_\'\n'
p11
s.